Archive member included because of file (symbol)

/opt/mipsel-linux-uclibc/usr/lib/libm.a(s_floor.os)
                              Pico/sound/ym2612.o (floor)
/opt/mipsel-linux-uclibc/usr/lib/libm.a(s_sin.os)
                              Pico/sound/ym2612.o (sin)
/opt/mipsel-linux-uclibc/usr/lib/libm.a(w_log.os)
                              Pico/sound/ym2612.o (log)
/opt/mipsel-linux-uclibc/usr/lib/libm.a(w_pow.os)
                              Pico/sound/ym2612.o (pow)
/opt/mipsel-linux-uclibc/usr/lib/libm.a(e_log.os)
                              /opt/mipsel-linux-uclibc/usr/lib/libm.a(w_log.os) (__ieee754_log)
/opt/mipsel-linux-uclibc/usr/lib/libm.a(e_pow.os)
                              /opt/mipsel-linux-uclibc/usr/lib/libm.a(w_pow.os) (__ieee754_pow)
/opt/mipsel-linux-uclibc/usr/lib/libm.a(e_rem_pio2.os)
                              /opt/mipsel-linux-uclibc/usr/lib/libm.a(s_sin.os) (__ieee754_rem_pio2)
/opt/mipsel-linux-uclibc/usr/lib/libm.a(e_sqrt.os)
                              /opt/mipsel-linux-uclibc/usr/lib/libm.a(e_pow.os) (__ieee754_sqrt)
/opt/mipsel-linux-uclibc/usr/lib/libm.a(k_cos.os)
                              /opt/mipsel-linux-uclibc/usr/lib/libm.a(s_sin.os) (__kernel_cos)
/opt/mipsel-linux-uclibc/usr/lib/libm.a(k_rem_pio2.os)
                              /opt/mipsel-linux-uclibc/usr/lib/libm.a(e_rem_pio2.os) (__kernel_rem_pio2)
/opt/mipsel-linux-uclibc/usr/lib/libm.a(k_sin.os)
                              /opt/mipsel-linux-uclibc/usr/lib/libm.a(s_sin.os) (__kernel_sin)
/opt/mipsel-linux-uclibc/usr/lib/libm.a(s_fabs.os)
                              /opt/mipsel-linux-uclibc/usr/lib/libm.a(e_pow.os) (__GI_fabs)
/opt/mipsel-linux-uclibc/usr/lib/libm.a(s_scalbn.os)
                              /opt/mipsel-linux-uclibc/usr/lib/libm.a(e_pow.os) (__GI_scalbn)
/opt/mipsel-linux-uclibc/usr/lib/libm.a(s_copysign.os)
                              /opt/mipsel-linux-uclibc/usr/lib/libm.a(s_scalbn.os) (__GI_copysign)
/opt/mipsel-linux-uclibc/usr/lib/libpng.a(libpng12_la-png.o)
                              platform/common/readpng.o (png_init_io)
/opt/mipsel-linux-uclibc/usr/lib/libpng.a(libpng12_la-pngget.o)
                              platform/common/readpng.o (png_get_rows)
/opt/mipsel-linux-uclibc/usr/lib/libpng.a(libpng12_la-pngread.o)
                              platform/common/readpng.o (png_destroy_read_struct)
/opt/mipsel-linux-uclibc/usr/lib/libpng.a(libpng12_la-pngrio.o)
                              /opt/mipsel-linux-uclibc/usr/lib/libpng.a(libpng12_la-pngread.o) (png_set_read_fn)
/opt/mipsel-linux-uclibc/usr/lib/libpng.a(libpng12_la-pngrtran.o)
                              /opt/mipsel-linux-uclibc/usr/lib/libpng.a(libpng12_la-pngread.o) (png_set_strip_16)
/opt/mipsel-linux-uclibc/usr/lib/libpng.a(libpng12_la-pngmem.o)
                              /opt/mipsel-linux-uclibc/usr/lib/libpng.a(libpng12_la-pngread.o) (png_set_mem_fn)
/opt/mipsel-linux-uclibc/usr/lib/libpng.a(libpng12_la-pngerror.o)
                              /opt/mipsel-linux-uclibc/usr/lib/libpng.a(libpng12_la-pngread.o) (png_set_error_fn)
/opt/mipsel-linux-uclibc/usr/lib/libpng.a(libpng12_la-pngrutil.o)
                              /opt/mipsel-linux-uclibc/usr/lib/libpng.a(libpng12_la-pngread.o) (png_read_start_row)
/opt/mipsel-linux-uclibc/usr/lib/libpng.a(libpng12_la-pngtrans.o)
                              /opt/mipsel-linux-uclibc/usr/lib/libpng.a(libpng12_la-pngread.o) (png_set_bgr)
/opt/mipsel-linux-uclibc/usr/lib/libpng.a(libpng12_la-pngset.o)
                              /opt/mipsel-linux-uclibc/usr/lib/libpng.a(libpng12_la-pngrutil.o) (png_set_cHRM)
/opt/mipsel-linux-uclibc/usr/bin/../lib/gcc/mipsel-linux-uclibc/4.3.3/libgcc.a(_fixunssfsi.o)
                              Pico/cd/pcm.o (__fixunssfsi)
/opt/mipsel-linux-uclibc/usr/bin/../lib/gcc/mipsel-linux-uclibc/4.3.3/libgcc.a(_fixunsdfsi.o)
                              Pico/sound/sn76496.o (__fixunsdfsi)
/opt/mipsel-linux-uclibc/usr/bin/../lib/gcc/mipsel-linux-uclibc/4.3.3/libgcc.a(_addsub_sf.o)
                              Pico/cd/pcm.o (__subsf3)
/opt/mipsel-linux-uclibc/usr/bin/../lib/gcc/mipsel-linux-uclibc/4.3.3/libgcc.a(_mul_sf.o)
                              Pico/cd/pcm.o (__mulsf3)
/opt/mipsel-linux-uclibc/usr/bin/../lib/gcc/mipsel-linux-uclibc/4.3.3/libgcc.a(_div_sf.o)
                              /opt/mipsel-linux-uclibc/usr/lib/libpng.a(libpng12_la-pngget.o) (__divsf3)
/opt/mipsel-linux-uclibc/usr/bin/../lib/gcc/mipsel-linux-uclibc/4.3.3/libgcc.a(_ne_sf.o)
                              /opt/mipsel-linux-uclibc/usr/lib/libpng.a(libpng12_la-pngrtran.o) (__nesf2)
/opt/mipsel-linux-uclibc/usr/bin/../lib/gcc/mipsel-linux-uclibc/4.3.3/libgcc.a(_ge_sf.o)
                              Pico/cd/pcm.o (__gesf2)
/opt/mipsel-linux-uclibc/usr/bin/../lib/gcc/mipsel-linux-uclibc/4.3.3/libgcc.a(_si_to_sf.o)
                              Pico/cd/pcm.o (__floatsisf)
/opt/mipsel-linux-uclibc/usr/bin/../lib/gcc/mipsel-linux-uclibc/4.3.3/libgcc.a(_sf_to_si.o)
                              /opt/mipsel-linux-uclibc/usr/bin/../lib/gcc/mipsel-linux-uclibc/4.3.3/libgcc.a(_fixunssfsi.o) (__fixsfsi)
/opt/mipsel-linux-uclibc/usr/bin/../lib/gcc/mipsel-linux-uclibc/4.3.3/libgcc.a(_sf_to_df.o)
                              Pico/cd/pcm.o (__extendsfdf2)
/opt/mipsel-linux-uclibc/usr/bin/../lib/gcc/mipsel-linux-uclibc/4.3.3/libgcc.a(_thenan_sf.o)
                              /opt/mipsel-linux-uclibc/usr/bin/../lib/gcc/mipsel-linux-uclibc/4.3.3/libgcc.a(_addsub_sf.o) (__thenan_sf)
/opt/mipsel-linux-uclibc/usr/bin/../lib/gcc/mipsel-linux-uclibc/4.3.3/libgcc.a(_usi_to_sf.o)
                              Pico/cd/pcm.o (__floatunsisf)
/opt/mipsel-linux-uclibc/usr/bin/../lib/gcc/mipsel-linux-uclibc/4.3.3/libgcc.a(_addsub_df.o)
                              /opt/mipsel-linux-uclibc/usr/lib/libm.a(s_sin.os) (__subdf3)
/opt/mipsel-linux-uclibc/usr/bin/../lib/gcc/mipsel-linux-uclibc/4.3.3/libgcc.a(_mul_df.o)
                              Pico/sound/sn76496.o (__muldf3)
/opt/mipsel-linux-uclibc/usr/bin/../lib/gcc/mipsel-linux-uclibc/4.3.3/libgcc.a(_div_df.o)
                              Pico/cd/pcm.o (__divdf3)
/opt/mipsel-linux-uclibc/usr/bin/../lib/gcc/mipsel-linux-uclibc/4.3.3/libgcc.a(_eq_df.o)
                              /opt/mipsel-linux-uclibc/usr/lib/libm.a(e_log.os) (__eqdf2)
/opt/mipsel-linux-uclibc/usr/bin/../lib/gcc/mipsel-linux-uclibc/4.3.3/libgcc.a(_gt_df.o)
                              Pico/sound/ym2612.o (__gtdf2)
/opt/mipsel-linux-uclibc/usr/bin/../lib/gcc/mipsel-linux-uclibc/4.3.3/libgcc.a(_ge_df.o)
                              /opt/mipsel-linux-uclibc/usr/lib/libm.a(k_rem_pio2.os) (__gedf2)
/opt/mipsel-linux-uclibc/usr/bin/../lib/gcc/mipsel-linux-uclibc/4.3.3/libgcc.a(_lt_df.o)
                              /opt/mipsel-linux-uclibc/usr/lib/libpng.a(libpng12_la-pngrtran.o) (__ltdf2)
/opt/mipsel-linux-uclibc/usr/bin/../lib/gcc/mipsel-linux-uclibc/4.3.3/libgcc.a(_le_df.o)
                              /opt/mipsel-linux-uclibc/usr/lib/libm.a(e_pow.os) (__ledf2)
/opt/mipsel-linux-uclibc/usr/bin/../lib/gcc/mipsel-linux-uclibc/4.3.3/libgcc.a(_si_to_df.o)
                              Pico/sound/sn76496.o (__floatsidf)
/opt/mipsel-linux-uclibc/usr/bin/../lib/gcc/mipsel-linux-uclibc/4.3.3/libgcc.a(_df_to_si.o)
                              Pico/sound/ym2612.o (__fixdfsi)
/opt/mipsel-linux-uclibc/usr/bin/../lib/gcc/mipsel-linux-uclibc/4.3.3/libgcc.a(_make_df.o)
                              /opt/mipsel-linux-uclibc/usr/bin/../lib/gcc/mipsel-linux-uclibc/4.3.3/libgcc.a(_sf_to_df.o) (__make_dp)
/opt/mipsel-linux-uclibc/usr/bin/../lib/gcc/mipsel-linux-uclibc/4.3.3/libgcc.a(_df_to_sf.o)
                              Pico/cd/pcm.o (__truncdfsf2)
/opt/mipsel-linux-uclibc/usr/bin/../lib/gcc/mipsel-linux-uclibc/4.3.3/libgcc.a(_thenan_df.o)
                              /opt/mipsel-linux-uclibc/usr/bin/../lib/gcc/mipsel-linux-uclibc/4.3.3/libgcc.a(_addsub_df.o) (__thenan_df)
/opt/mipsel-linux-uclibc/usr/bin/../lib/gcc/mipsel-linux-uclibc/4.3.3/libgcc.a(_usi_to_df.o)
                              Pico/sound/ym2612.o (__floatunsidf)
/opt/mipsel-linux-uclibc/usr/bin/../lib/gcc/mipsel-linux-uclibc/4.3.3/libgcc.a(_lshrdi3.o)
                              /opt/mipsel-linux-uclibc/usr/bin/../lib/gcc/mipsel-linux-uclibc/4.3.3/libgcc.a(_addsub_df.o) (__lshrdi3)
/opt/mipsel-linux-uclibc/usr/bin/../lib/gcc/mipsel-linux-uclibc/4.3.3/libgcc.a(_ashldi3.o)
                              /opt/mipsel-linux-uclibc/usr/bin/../lib/gcc/mipsel-linux-uclibc/4.3.3/libgcc.a(_addsub_df.o) (__ashldi3)
/opt/mipsel-linux-uclibc/usr/bin/../lib/gcc/mipsel-linux-uclibc/4.3.3/libgcc.a(_ucmpdi2.o)
                              /opt/mipsel-linux-uclibc/usr/bin/../lib/gcc/mipsel-linux-uclibc/4.3.3/libgcc.a(_addsub_df.o) (__ucmpdi2)
/opt/mipsel-linux-uclibc/usr/bin/../lib/gcc/mipsel-linux-uclibc/4.3.3/libgcc.a(_clzsi2.o)
                              /opt/mipsel-linux-uclibc/usr/bin/../lib/gcc/mipsel-linux-uclibc/4.3.3/libgcc.a(_si_to_sf.o) (__clzsi2)
/opt/mipsel-linux-uclibc/usr/bin/../lib/gcc/mipsel-linux-uclibc/4.3.3/libgcc.a(_pack_sf.o)
                              /opt/mipsel-linux-uclibc/usr/bin/../lib/gcc/mipsel-linux-uclibc/4.3.3/libgcc.a(_addsub_sf.o) (__pack_f)
/opt/mipsel-linux-uclibc/usr/bin/../lib/gcc/mipsel-linux-uclibc/4.3.3/libgcc.a(_unpack_sf.o)
                              /opt/mipsel-linux-uclibc/usr/bin/../lib/gcc/mipsel-linux-uclibc/4.3.3/libgcc.a(_addsub_sf.o) (__unpack_f)
/opt/mipsel-linux-uclibc/usr/bin/../lib/gcc/mipsel-linux-uclibc/4.3.3/libgcc.a(_fpcmp_parts_sf.o)
                              /opt/mipsel-linux-uclibc/usr/bin/../lib/gcc/mipsel-linux-uclibc/4.3.3/libgcc.a(_ne_sf.o) (__fpcmp_parts_f)
/opt/mipsel-linux-uclibc/usr/bin/../lib/gcc/mipsel-linux-uclibc/4.3.3/libgcc.a(_make_sf.o)
                              /opt/mipsel-linux-uclibc/usr/bin/../lib/gcc/mipsel-linux-uclibc/4.3.3/libgcc.a(_df_to_sf.o) (__make_fp)
/opt/mipsel-linux-uclibc/usr/bin/../lib/gcc/mipsel-linux-uclibc/4.3.3/libgcc.a(_pack_df.o)
                              /opt/mipsel-linux-uclibc/usr/bin/../lib/gcc/mipsel-linux-uclibc/4.3.3/libgcc.a(_addsub_df.o) (__pack_d)
/opt/mipsel-linux-uclibc/usr/bin/../lib/gcc/mipsel-linux-uclibc/4.3.3/libgcc.a(_unpack_df.o)
                              /opt/mipsel-linux-uclibc/usr/bin/../lib/gcc/mipsel-linux-uclibc/4.3.3/libgcc.a(_addsub_df.o) (__unpack_d)
/opt/mipsel-linux-uclibc/usr/bin/../lib/gcc/mipsel-linux-uclibc/4.3.3/libgcc.a(_fpcmp_parts_df.o)
                              /opt/mipsel-linux-uclibc/usr/bin/../lib/gcc/mipsel-linux-uclibc/4.3.3/libgcc.a(_eq_df.o) (__fpcmp_parts_d)
/opt/mipsel-linux-uclibc/usr/bin/../lib/gcc/mipsel-linux-uclibc/4.3.3/libgcc.a(_clz.o)
                              /opt/mipsel-linux-uclibc/usr/bin/../lib/gcc/mipsel-linux-uclibc/4.3.3/libgcc.a(_clzsi2.o) (__clz_tab)
/opt/mipsel-linux-uclibc/usr/lib/libc.a(mmap.os)
                              gp2x.o (mmap)
/opt/mipsel-linux-uclibc/usr/lib/libc.a(bsd-_setjmp.os)
                              /opt/mipsel-linux-uclibc/usr/lib/libpng.a(libpng12_la-pngread.o) (_setjmp)
/opt/mipsel-linux-uclibc/usr/lib/libc.a(setjmp.os)
                              /opt/mipsel-linux-uclibc/usr/lib/libc.a(bsd-_setjmp.os) (__sigsetjmp)
/opt/mipsel-linux-uclibc/usr/lib/libc.a(close.os)
                              platform/gp2x/usbjoy.o (close)
/opt/mipsel-linux-uclibc/usr/lib/libc.a(dup.os)
                              gp2x.o (dup)
/opt/mipsel-linux-uclibc/usr/lib/libc.a(getcwd.os)
                              platform/gp2x/menu.o (getcwd)
/opt/mipsel-linux-uclibc/usr/lib/libc.a(geteuid.os)
                              gp2x.o (geteuid)
/opt/mipsel-linux-uclibc/usr/lib/libc.a(getpagesize.os)
                              /opt/mipsel-linux-uclibc/usr/lib/libc.a(getcwd.os) (__GI_getpagesize)
/opt/mipsel-linux-uclibc/usr/lib/libc.a(gettimeofday.os)
                              platform/gp2x/emu.o (gettimeofday)
/opt/mipsel-linux-uclibc/usr/lib/libc.a(ioctl.os)
                              platform/gp2x/usbjoy.o (ioctl)
/opt/mipsel-linux-uclibc/usr/lib/libc.a(longjmp.os)
                              /opt/mipsel-linux-uclibc/usr/lib/libpng.a(libpng12_la-pngerror.o) (longjmp)
/opt/mipsel-linux-uclibc/usr/lib/libc.a(mkdir.os)
                              platform/gp2x/emu.o (mkdir)
/opt/mipsel-linux-uclibc/usr/lib/libc.a(munmap.os)
                              gp2x.o (munmap)
/opt/mipsel-linux-uclibc/usr/lib/libc.a(open.os)
                              platform/gp2x/usbjoy.o (open)
/opt/mipsel-linux-uclibc/usr/lib/libc.a(read.os)
                              platform/gp2x/usbjoy.o (read)
/opt/mipsel-linux-uclibc/usr/lib/libc.a(sigprocmask.os)
                              /opt/mipsel-linux-uclibc/usr/lib/libc.a(longjmp.os) (__GI_sigprocmask)
/opt/mipsel-linux-uclibc/usr/lib/libc.a(__syscall_fcntl.os)
                              platform/gp2x/usbjoy.o (fcntl)
/opt/mipsel-linux-uclibc/usr/lib/libc.a(write.os)
                              gp2x.o (write)
/opt/mipsel-linux-uclibc/usr/lib/libc.a(__C_ctype_b.os)
                              Pico/Patch.o (__ctype_b)
/opt/mipsel-linux-uclibc/usr/lib/libc.a(__C_ctype_tolower.os)
                              platform/common/emu.o (__ctype_tolower)
/opt/mipsel-linux-uclibc/usr/lib/libc.a(alphasort.os)
                              platform/gp2x/menu.o (alphasort)
/opt/mipsel-linux-uclibc/usr/lib/libc.a(closedir.os)
                              platform/gp2x/menu.o (closedir)
/opt/mipsel-linux-uclibc/usr/lib/libc.a(opendir.os)
                              platform/gp2x/menu.o (opendir)
/opt/mipsel-linux-uclibc/usr/lib/libc.a(scandir.os)
                              platform/gp2x/menu.o (scandir)
/opt/mipsel-linux-uclibc/usr/lib/libc.a(__errno_location.os)
                              gp2x.o (__errno_location)
/opt/mipsel-linux-uclibc/usr/lib/libc.a(fclose.os)
                              platform/gp2x/main.o (fclose)
/opt/mipsel-linux-uclibc/usr/lib/libc.a(fdopen.os)
                              zlib/gzio.o (fdopen)
/opt/mipsel-linux-uclibc/usr/lib/libc.a(fopen.os)
                              platform/gp2x/main.o (fopen)
/opt/mipsel-linux-uclibc/usr/lib/libc.a(fseeko.os)
                              platform/gp2x/emu.o (fseek)
/opt/mipsel-linux-uclibc/usr/lib/libc.a(ftello.os)
                              platform/common/emu.o (ftell)
/opt/mipsel-linux-uclibc/usr/lib/libc.a(perror.os)
                              platform/gp2x/menu.o (perror)
/opt/mipsel-linux-uclibc/usr/lib/libc.a(puts.os)
                              platform/gp2x/main.o (puts)
/opt/mipsel-linux-uclibc/usr/lib/libc.a(setvbuf.os)
                              Pico/Cart.o (setvbuf)
/opt/mipsel-linux-uclibc/usr/lib/libc.a(printf.os)
                              platform/gp2x/main.o (printf)
/opt/mipsel-linux-uclibc/usr/lib/libc.a(vsprintf.os)
                              platform/common/menu.o (vsprintf)
/opt/mipsel-linux-uclibc/usr/lib/libc.a(fprintf.os)
                              /opt/mipsel-linux-uclibc/usr/lib/libc.a(perror.os) (__GI_fprintf)
/opt/mipsel-linux-uclibc/usr/lib/libc.a(snprintf.os)
                              gp2x.o (snprintf)
/opt/mipsel-linux-uclibc/usr/lib/libc.a(sprintf.os)
                              platform/gp2x/menu.o (sprintf)
/opt/mipsel-linux-uclibc/usr/lib/libc.a(vsnprintf.os)
                              /opt/mipsel-linux-uclibc/usr/lib/libc.a(vsprintf.os) (__GI_vsnprintf)
/opt/mipsel-linux-uclibc/usr/lib/libc.a(fseeko64.os)
                              /opt/mipsel-linux-uclibc/usr/lib/libc.a(fseeko.os) (__GI_fseeko64)
/opt/mipsel-linux-uclibc/usr/lib/libc.a(ftello64.os)
                              /opt/mipsel-linux-uclibc/usr/lib/libc.a(ftello.os) (__GI_ftello64)
/opt/mipsel-linux-uclibc/usr/lib/libc.a(_adjust_pos.os)
                              /opt/mipsel-linux-uclibc/usr/lib/libc.a(fseeko64.os) (__stdio_adjust_position)
/opt/mipsel-linux-uclibc/usr/lib/libc.a(_fopen.os)
                              /opt/mipsel-linux-uclibc/usr/lib/libc.a(fdopen.os) (_stdio_fopen)
/opt/mipsel-linux-uclibc/usr/lib/libc.a(_stdio.os)
                              /opt/mipsel-linux-uclibc/usr/lib/libc.a(vsnprintf.os) (__stdio_init_mutex)
/opt/mipsel-linux-uclibc/usr/lib/libc.a(_wcommit.os)
                              /opt/mipsel-linux-uclibc/usr/lib/libc.a(fseeko64.os) (__stdio_wcommit)
/opt/mipsel-linux-uclibc/usr/lib/libc.a(_cs_funcs.os)
                              /opt/mipsel-linux-uclibc/usr/lib/libc.a(_fopen.os) (_cs_close)
/opt/mipsel-linux-uclibc/usr/lib/libc.a(vfprintf.os)
                              /opt/mipsel-linux-uclibc/usr/lib/libc.a(printf.os) (__GI_vfprintf)
/opt/mipsel-linux-uclibc/usr/lib/libc.a(_vfprintf_internal.os)
                              /opt/mipsel-linux-uclibc/usr/lib/libc.a(vsnprintf.os) (_vfprintf_internal)
/opt/mipsel-linux-uclibc/usr/lib/libc.a(_ppfs_init.os)
                              /opt/mipsel-linux-uclibc/usr/lib/libc.a(_vfprintf_internal.os) (_ppfs_init)
/opt/mipsel-linux-uclibc/usr/lib/libc.a(_ppfs_prepargs.os)
                              /opt/mipsel-linux-uclibc/usr/lib/libc.a(_vfprintf_internal.os) (_ppfs_prepargs)
/opt/mipsel-linux-uclibc/usr/lib/libc.a(_ppfs_setargs.os)
                              /opt/mipsel-linux-uclibc/usr/lib/libc.a(_vfprintf_internal.os) (_ppfs_setargs)
/opt/mipsel-linux-uclibc/usr/lib/libc.a(_ppfs_parsespec.os)
                              /opt/mipsel-linux-uclibc/usr/lib/libc.a(_vfprintf_internal.os) (_ppfs_parsespec)
/opt/mipsel-linux-uclibc/usr/lib/libc.a(clearerr.os)
                              zlib/gzio.o (clearerr)
/opt/mipsel-linux-uclibc/usr/lib/libc.a(feof.os)
                              platform/common/emu.o (feof)
/opt/mipsel-linux-uclibc/usr/lib/libc.a(ferror.os)
                              platform/gp2x/menu.o (ferror)
/opt/mipsel-linux-uclibc/usr/lib/libc.a(fflush.os)
                              platform/gp2x/main.o (fflush)
/opt/mipsel-linux-uclibc/usr/lib/libc.a(fgets.os)
                              platform/common/menu.o (fgets)
/opt/mipsel-linux-uclibc/usr/lib/libc.a(fputc.os)
                              zlib/gzio.o (fputc)
/opt/mipsel-linux-uclibc/usr/lib/libc.a(fread.os)
                              platform/gp2x/menu.o (fread)
/opt/mipsel-linux-uclibc/usr/lib/libc.a(fwrite.os)
                              platform/gp2x/emu.o (fwrite)
/opt/mipsel-linux-uclibc/usr/lib/libc.a(putchar.os)
                              platform/gp2x/menu.o (putchar)
/opt/mipsel-linux-uclibc/usr/lib/libc.a(fflush_unlocked.os)
                              /opt/mipsel-linux-uclibc/usr/lib/libc.a(fclose.os) (_stdio_openlist_dec_use)
/opt/mipsel-linux-uclibc/usr/lib/libc.a(fgets_unlocked.os)
                              /opt/mipsel-linux-uclibc/usr/lib/libc.a(fgets.os) (__GI_fgets_unlocked)
/opt/mipsel-linux-uclibc/usr/lib/libc.a(fputc_unlocked.os)
                              /opt/mipsel-linux-uclibc/usr/lib/libc.a(puts.os) (__GI___fputc_unlocked)
/opt/mipsel-linux-uclibc/usr/lib/libc.a(fputs_unlocked.os)
                              /opt/mipsel-linux-uclibc/usr/lib/libc.a(puts.os) (__GI_fputs_unlocked)
/opt/mipsel-linux-uclibc/usr/lib/libc.a(fread_unlocked.os)
                              /opt/mipsel-linux-uclibc/usr/lib/libc.a(fread.os) (__GI_fread_unlocked)
/opt/mipsel-linux-uclibc/usr/lib/libc.a(fwrite_unlocked.os)
                              /opt/mipsel-linux-uclibc/usr/lib/libc.a(fwrite.os) (__GI_fwrite_unlocked)
/opt/mipsel-linux-uclibc/usr/lib/libc.a(memcpy.os)
                              gp2x.o (memcpy)
/opt/mipsel-linux-uclibc/usr/lib/libc.a(memset.os)
                              platform/gp2x/menu.o (memset)
/opt/mipsel-linux-uclibc/usr/lib/libc.a(memcmp.os)
                              unzip/unzip.o (memcmp)
/opt/mipsel-linux-uclibc/usr/lib/libc.a(memmove.os)
                              Pico/cd/buffering.o (memmove)
/opt/mipsel-linux-uclibc/usr/lib/libc.a(strcat.os)
                              platform/gp2x/menu.o (strcat)
/opt/mipsel-linux-uclibc/usr/lib/libc.a(strchr.os)
                              Pico/Patch.o (strchr)
/opt/mipsel-linux-uclibc/usr/lib/libc.a(strcmp.os)
                              /opt/mipsel-linux-uclibc/usr/lib/libc.a(alphasort.os) (__GI_strcmp)
/opt/mipsel-linux-uclibc/usr/lib/libc.a(strcpy.os)
                              platform/gp2x/menu.o (strcpy)
/opt/mipsel-linux-uclibc/usr/lib/libc.a(strlen.os)
                              /opt/mipsel-linux-uclibc/usr/lib/libc.a(_vfprintf_internal.os) (__GI_strlen)
/opt/mipsel-linux-uclibc/usr/lib/libc.a(strncmp.os)
                              platform/common/emu.o (strncmp)
/opt/mipsel-linux-uclibc/usr/lib/libc.a(strncpy.os)
                              platform/gp2x/main.o (strncpy)
/opt/mipsel-linux-uclibc/usr/lib/libc.a(strnlen.os)
                              /opt/mipsel-linux-uclibc/usr/lib/libc.a(_vfprintf_internal.os) (__GI_strnlen)
/opt/mipsel-linux-uclibc/usr/lib/libc.a(strrchr.os)
                              platform/common/emu.o (strrchr)
/opt/mipsel-linux-uclibc/usr/lib/libc.a(strstr.os)
                              platform/common/emu.o (strstr)
/opt/mipsel-linux-uclibc/usr/lib/libc.a(__glibc_strerror_r.os)
                              /opt/mipsel-linux-uclibc/usr/lib/libc.a(_vfprintf_internal.os) (__GI___glibc_strerror_r)
/opt/mipsel-linux-uclibc/usr/lib/libc.a(strcasecmp.os)
                              platform/gp2x/main.o (strcasecmp)
/opt/mipsel-linux-uclibc/usr/lib/libc.a(strerror.os)
                              zlib/gzio.o (strerror)
/opt/mipsel-linux-uclibc/usr/lib/libc.a(strncasecmp.os)
                              platform/gp2x/usbjoy.o (strncasecmp)
/opt/mipsel-linux-uclibc/usr/lib/libc.a(__xpg_strerror_r.os)
                              /opt/mipsel-linux-uclibc/usr/lib/libc.a(__glibc_strerror_r.os) (__GI___xpg_strerror_r)
/opt/mipsel-linux-uclibc/usr/lib/libc.a(isatty.os)
                              /opt/mipsel-linux-uclibc/usr/lib/libc.a(_fopen.os) (__GI_isatty)
/opt/mipsel-linux-uclibc/usr/lib/libc.a(tcgetattr.os)
                              /opt/mipsel-linux-uclibc/usr/lib/libc.a(isatty.os) (__GI_tcgetattr)
/opt/mipsel-linux-uclibc/usr/lib/libc.a(tcsetattr.os)
                              gp2x.o (tcsetattr)
/opt/mipsel-linux-uclibc/usr/lib/libc.a(malloc.os)
                              platform/gp2x/menu.o (malloc)
/opt/mipsel-linux-uclibc/usr/lib/libc.a(calloc.os)
                              Pico/Cart.o (calloc)
/opt/mipsel-linux-uclibc/usr/lib/libc.a(realloc.os)
                              Pico/Cart.o (realloc)
/opt/mipsel-linux-uclibc/usr/lib/libc.a(free.os)
                              /opt/mipsel-linux-uclibc/usr/lib/libc.a(malloc.os) (__malloc_consolidate)
/opt/mipsel-linux-uclibc/usr/lib/libc.a(abort.os)
                              /opt/mipsel-linux-uclibc/usr/lib/libc.a(malloc.os) (__GI_abort)
/opt/mipsel-linux-uclibc/usr/lib/libc.a(system.os)
                              platform/gp2x/usbjoy.o (system)
/opt/mipsel-linux-uclibc/usr/lib/libc.a(strtol.os)
                              Pico/Pico.o (strtol)
/opt/mipsel-linux-uclibc/usr/lib/libc.a(strtoul.os)
                              platform/common/menu.o (strtoul)
/opt/mipsel-linux-uclibc/usr/lib/libc.a(_stdlib_strto_l.os)
                              /opt/mipsel-linux-uclibc/usr/lib/libc.a(strtol.os) (_stdlib_strto_l)
/opt/mipsel-linux-uclibc/usr/lib/libc.a(qsort.os)
                              /opt/mipsel-linux-uclibc/usr/lib/libc.a(scandir.os) (__GI_qsort)
/opt/mipsel-linux-uclibc/usr/lib/libc.a(strtod.os)
                              /opt/mipsel-linux-uclibc/usr/lib/libpng.a(libpng12_la-pngrutil.o) (strtod)
/opt/mipsel-linux-uclibc/usr/lib/libc.a(__strtofpmax.os)
                              /opt/mipsel-linux-uclibc/usr/lib/libc.a(strtod.os) (__strtofpmax)
/opt/mipsel-linux-uclibc/usr/lib/libc.a(__fp_range_check.os)
                              /opt/mipsel-linux-uclibc/usr/lib/libc.a(strtod.os) (__fp_range_check)
/opt/mipsel-linux-uclibc/usr/lib/libc.a(exit.os)
                              gp2x.o (exit)
/opt/mipsel-linux-uclibc/usr/lib/libc.a(execl.os)
                              /opt/mipsel-linux-uclibc/usr/lib/libc.a(system.os) (__GI_execl)
/opt/mipsel-linux-uclibc/usr/lib/libc.a(sysconf.os)
                              /opt/mipsel-linux-uclibc/usr/lib/libc.a(free.os) (__GI_sysconf)
/opt/mipsel-linux-uclibc/usr/lib/libc.a(usleep.os)
                              platform/gp2x/menu.o (usleep)
/opt/mipsel-linux-uclibc/usr/lib/libc.a(__uClibc_main.os)
                              /opt/mipsel-linux-uclibc/usr/lib/libc.a(exit.os) (__GI___uClibc_fini)
/opt/mipsel-linux-uclibc/usr/lib/libc.a(__longjmp.os)
                              /opt/mipsel-linux-uclibc/usr/lib/libc.a(longjmp.os) (__GI___longjmp)
/opt/mipsel-linux-uclibc/usr/lib/libc.a(setjmp_aux.os)
                              /opt/mipsel-linux-uclibc/usr/lib/libc.a(setjmp.os) (__sigsetjmp_aux)
/opt/mipsel-linux-uclibc/usr/lib/libc.a(sigaction.os)
                              /opt/mipsel-linux-uclibc/usr/lib/libc.a(abort.os) (__GI_sigaction)
/opt/mipsel-linux-uclibc/usr/lib/libc.a(clock_getres.os)
                              /opt/mipsel-linux-uclibc/usr/lib/libc.a(sysconf.os) (__GI_clock_getres)
/opt/mipsel-linux-uclibc/usr/lib/libc.a(execve.os)
                              /opt/mipsel-linux-uclibc/usr/lib/libc.a(execl.os) (__GI_execve)
/opt/mipsel-linux-uclibc/usr/lib/libc.a(_exit.os)
                              /opt/mipsel-linux-uclibc/usr/lib/libc.a(abort.os) (__GI__exit)
/opt/mipsel-linux-uclibc/usr/lib/libc.a(fork.os)
                              /opt/mipsel-linux-uclibc/usr/lib/libc.a(system.os) (__GI_fork)
/opt/mipsel-linux-uclibc/usr/lib/libc.a(fstat.os)
                              /opt/mipsel-linux-uclibc/usr/lib/libc.a(opendir.os) (__GI_fstat)
/opt/mipsel-linux-uclibc/usr/lib/libc.a(getdtablesize.os)
                              /opt/mipsel-linux-uclibc/usr/lib/libc.a(sysconf.os) (__GI_getdtablesize)
/opt/mipsel-linux-uclibc/usr/lib/libc.a(getegid.os)
                              /opt/mipsel-linux-uclibc/usr/lib/libc.a(__uClibc_main.os) (__GI_getegid)
/opt/mipsel-linux-uclibc/usr/lib/libc.a(getgid.os)
                              /opt/mipsel-linux-uclibc/usr/lib/libc.a(__uClibc_main.os) (__GI_getgid)
/opt/mipsel-linux-uclibc/usr/lib/libc.a(getrlimit.os)
                              /opt/mipsel-linux-uclibc/usr/lib/libc.a(getdtablesize.os) (__GI_getrlimit)
/opt/mipsel-linux-uclibc/usr/lib/libc.a(getuid.os)
                              /opt/mipsel-linux-uclibc/usr/lib/libc.a(__uClibc_main.os) (__GI_getuid)
/opt/mipsel-linux-uclibc/usr/lib/libc.a(llseek.os)
                              /opt/mipsel-linux-uclibc/usr/lib/libc.a(_cs_funcs.os) (__GI_lseek64)
/opt/mipsel-linux-uclibc/usr/lib/libc.a(mremap.os)
                              /opt/mipsel-linux-uclibc/usr/lib/libc.a(realloc.os) (__GI_mremap)
/opt/mipsel-linux-uclibc/usr/lib/libc.a(nanosleep.os)
                              /opt/mipsel-linux-uclibc/usr/lib/libc.a(usleep.os) (nanosleep)
/opt/mipsel-linux-uclibc/usr/lib/libc.a(sbrk.os)
                              /opt/mipsel-linux-uclibc/usr/lib/libc.a(malloc.os) (__GI_sbrk)
/opt/mipsel-linux-uclibc/usr/lib/libc.a(__syscall_fcntl64.os)
                              /opt/mipsel-linux-uclibc/usr/lib/libc.a(__syscall_fcntl.os) (__GI___libc_fcntl64)
/opt/mipsel-linux-uclibc/usr/lib/libc.a(__syscall_rt_sigaction.os)
                              /opt/mipsel-linux-uclibc/usr/lib/libc.a(sigaction.os) (__syscall_rt_sigaction)
/opt/mipsel-linux-uclibc/usr/lib/libc.a(wait4.os)
                              /opt/mipsel-linux-uclibc/usr/lib/libc.a(system.os) (__GI_wait4)
/opt/mipsel-linux-uclibc/usr/lib/libc.a(xstatconv.os)
                              /opt/mipsel-linux-uclibc/usr/lib/libc.a(fstat.os) (__xstat_conv)
/opt/mipsel-linux-uclibc/usr/lib/libc.a(readdir.os)
                              /opt/mipsel-linux-uclibc/usr/lib/libc.a(scandir.os) (__GI_readdir)
/opt/mipsel-linux-uclibc/usr/lib/libc.a(errno.os)
                              /opt/mipsel-linux-uclibc/usr/lib/libc.a(__errno_location.os) (__GI_errno)
/opt/mipsel-linux-uclibc/usr/lib/libc.a(_READ.os)
                              /opt/mipsel-linux-uclibc/usr/lib/libc.a(fread_unlocked.os) (__stdio_READ)
/opt/mipsel-linux-uclibc/usr/lib/libc.a(_WRITE.os)
                              /opt/mipsel-linux-uclibc/usr/lib/libc.a(_wcommit.os) (__stdio_WRITE)
/opt/mipsel-linux-uclibc/usr/lib/libc.a(_fwrite.os)
                              /opt/mipsel-linux-uclibc/usr/lib/libc.a(_vfprintf_internal.os) (__stdio_fwrite)
/opt/mipsel-linux-uclibc/usr/lib/libc.a(_trans2r.os)
                              /opt/mipsel-linux-uclibc/usr/lib/libc.a(fread_unlocked.os) (__stdio_trans2r)
/opt/mipsel-linux-uclibc/usr/lib/libc.a(_trans2w.os)
                              /opt/mipsel-linux-uclibc/usr/lib/libc.a(vfprintf.os) (__stdio_trans2w)
/opt/mipsel-linux-uclibc/usr/lib/libc.a(_load_inttype.os)
                              /opt/mipsel-linux-uclibc/usr/lib/libc.a(_vfprintf_internal.os) (_load_inttype)
/opt/mipsel-linux-uclibc/usr/lib/libc.a(_store_inttype.os)
                              /opt/mipsel-linux-uclibc/usr/lib/libc.a(_vfprintf_internal.os) (_store_inttype)
/opt/mipsel-linux-uclibc/usr/lib/libc.a(_uintmaxtostr.os)
                              /opt/mipsel-linux-uclibc/usr/lib/libc.a(_vfprintf_internal.os) (_uintmaxtostr)
/opt/mipsel-linux-uclibc/usr/lib/libc.a(_fpmaxtostr.os)
                              /opt/mipsel-linux-uclibc/usr/lib/libc.a(_vfprintf_internal.os) (_fpmaxtostr)
/opt/mipsel-linux-uclibc/usr/lib/libc.a(fgetc_unlocked.os)
                              /opt/mipsel-linux-uclibc/usr/lib/libc.a(fgets_unlocked.os) (__GI___fgetc_unlocked)
/opt/mipsel-linux-uclibc/usr/lib/libc.a(memchr.os)
                              /opt/mipsel-linux-uclibc/usr/lib/libc.a(_fwrite.os) (__GI_memchr)
/opt/mipsel-linux-uclibc/usr/lib/libc.a(mempcpy.os)
                              /opt/mipsel-linux-uclibc/usr/lib/libc.a(tcgetattr.os) (__GI_mempcpy)
/opt/mipsel-linux-uclibc/usr/lib/libc.a(memrchr.os)
                              /opt/mipsel-linux-uclibc/usr/lib/libc.a(_fwrite.os) (__GI_memrchr)
/opt/mipsel-linux-uclibc/usr/lib/libc.a(_string_syserrmsgs.os)
                              /opt/mipsel-linux-uclibc/usr/lib/libc.a(__xpg_strerror_r.os) (_string_syserrmsgs)
/opt/mipsel-linux-uclibc/usr/lib/libc.a(raise.os)
                              /opt/mipsel-linux-uclibc/usr/lib/libc.a(abort.os) (__GI_raise)
/opt/mipsel-linux-uclibc/usr/lib/libc.a(sigjmp.os)
                              /opt/mipsel-linux-uclibc/usr/lib/libc.a(setjmp_aux.os) (__sigjmp_save)
/opt/mipsel-linux-uclibc/usr/lib/libc.a(signal.os)
                              /opt/mipsel-linux-uclibc/usr/lib/libc.a(system.os) (__GI_signal)
/opt/mipsel-linux-uclibc/usr/lib/libc.a(sigsetops.os)
                              /opt/mipsel-linux-uclibc/usr/lib/libc.a(signal.os) (__sigismember)
/opt/mipsel-linux-uclibc/usr/lib/libc.a(dl-support.os)
                              /opt/mipsel-linux-uclibc/usr/lib/libc.a(__uClibc_main.os) (_dl_aux_init)
/opt/mipsel-linux-uclibc/usr/lib/libc.a(brk.os)
                              /opt/mipsel-linux-uclibc/usr/lib/libc.a(sbrk.os) (__GI_brk)
/opt/mipsel-linux-uclibc/usr/lib/libc.a(getdents.os)
                              /opt/mipsel-linux-uclibc/usr/lib/libc.a(readdir.os) (__getdents)
/opt/mipsel-linux-uclibc/usr/lib/libc.a(getpid.os)
                              /opt/mipsel-linux-uclibc/usr/lib/libc.a(raise.os) (__GI_getpid)
/opt/mipsel-linux-uclibc/usr/lib/libc.a(kill.os)
                              /opt/mipsel-linux-uclibc/usr/lib/libc.a(raise.os) (__GI_kill)
/opt/mipsel-linux-uclibc/usr/lib/libc.a(_rfill.os)
                              /opt/mipsel-linux-uclibc/usr/lib/libc.a(fgetc_unlocked.os) (__stdio_rfill)
/opt/mipsel-linux-uclibc/usr/lib/libc.a(getdents64.os)
                              /opt/mipsel-linux-uclibc/usr/lib/libc.a(getdents.os) (__getdents64)
/opt/mipsel-linux-uclibc/usr/bin/../lib/gcc/mipsel-linux-uclibc/4.3.3/libgcc.a(_ne_df.o)
                              /opt/mipsel-linux-uclibc/usr/lib/libc.a(__fp_range_check.os) (__nedf2)

Allocating common symbols
Common symbol       size              file

s68k_poll_adclk     0x4               Pico/cd/Memory.o
_dl_phdr            0x4               /opt/mipsel-linux-uclibc/usr/lib/libc.a(dl-support.os)
old_regs            0x40              Pico/Debug.o
gp2x_screen         0x4               gp2x.o
PicoCpuMM68k        0x170             Pico/Sek.o
currentConfig       0x4b8             platform/common/emu.o
ym2612_dacout       0x4               Pico/sound/ym2612.o
ym_tl_tab           0x34000           Pico/sound/ym2612.o
romFileName         0x1000            platform/gp2x/emu.o
m68ki_cycles        0x40000           cpu/musashi/m68kops.o
m68ki_aerr_address  0x4               cpu/musashi/m68kcpu.o
DefOutBuff          0x500             Pico/Draw.o
m68ki_instruction_jump_table
                    0x40000           cpu/musashi/m68kops.o
lastread_a          0x4               Pico/Memory.o
jz_emcregs          0x4               gp2x.o
m68ki_initial_cycles
                    0x4               cpu/musashi/m68kcpu.o
ym2612_st           0x4               Pico/sound/ym2612.o
ym2612_dacen        0x4               Pico/sound/ym2612.o
PicoCpuMS68k        0x170             Pico/cd/Sek.o
s68k_poll_cnt       0x4               Pico/cd/Memory.o
_sigintr            0x80              /opt/mipsel-linux-uclibc/usr/lib/libc.a(signal.os)
HighSprZ            0x150             Pico/Draw.o
__malloc_state      0x378             /opt/mipsel-linux-uclibc/usr/lib/libc.a(malloc.os)
_dl_phnum           0x4               /opt/mipsel-linux-uclibc/usr/lib/libc.a(dl-support.os)
localPal            0x400             platform/gp2x/emu.o
PicoCpuFM68k        0x478             Pico/Sek.o
HighCol             0x150             Pico/Draw.o
Pico                0x22268           Pico/Pico.o
m68ki_aerr_fc       0x4               cpu/musashi/m68kcpu.o
m68ki_address_space
                    0x4               cpu/musashi/m68kcpu.o
m68ki_aerr_write_mode
                    0x4               cpu/musashi/m68kcpu.o
CZ80                0xbc              cpu/cz80/cz80.o
g_m68kcontext       0x4               cpu/fame/famec.o
engineState         0x4               platform/gp2x/emu.o
saved_kbd_termios   0x34              gp2x.o
PicoPad             0x8               Pico/Pico.o
ym_tl_tab2          0x1a00            Pico/sound/ym2612.o
noticeMsg           0x40              platform/gp2x/emu.o
z80startCycle       0x4               Pico/Pico.o
rendstatus          0x4               Pico/Draw.o
sn76496_regs        0x4               Pico/sound/sn76496.o
old_sr              0x4               Pico/Debug.o
HighPal             0x200             Pico/Draw.o
g_argv              0x4               platform/gp2x/main.o
PicoCpuFS68k        0x478             Pico/cd/Sek.o
joys                0x10              platform/gp2x/usbjoy.o
_custom_printf_handler
                    0x28              /opt/mipsel-linux-uclibc/usr/lib/libc.a(_ppfs_parsespec.os)
z80stopCycle        0x4               Pico/Pico.o
_custom_printf_arginfo
                    0x28              /opt/mipsel-linux-uclibc/usr/lib/libc.a(_ppfs_parsespec.os)
ppop                0x4               Pico/Debug.o

Discarded input sections

 .note.GNU-stack
                0x0000000000000000        0x0 /opt/mipsel-linux-uclibc/usr/lib/crt1.o
 .reginfo       0x0000000000000000        0x0 /opt/mipsel-linux-uclibc/usr/lib/crti.o
 .note.GNU-stack
                0x0000000000000000        0x0 /opt/mipsel-linux-uclibc/usr/lib/crti.o
 .reginfo       0x0000000000000000        0x0 /opt/mipsel-linux-uclibc/usr/bin/../lib/gcc/mipsel-linux-uclibc/4.3.3/crtbeginT.o
 .reginfo       0x0000000000000000        0x0 platform/gp2x/main.o
 .reginfo       0x0000000000000000        0x0 platform/gp2x/menu.o
 .reginfo       0x0000000000000000        0x0 platform/gp2x/emu.o
 .reginfo       0x0000000000000000        0x0 platform/gp2x/usbjoy.o
 .reginfo       0x0000000000000000        0x0 blit.o
 .reginfo       0x0000000000000000        0x0 gp2x.o
 .reginfo       0x0000000000000000        0x0 log_io.o
 .reginfo       0x0000000000000000        0x0 platform/common/emu.o
 .reginfo       0x0000000000000000        0x0 platform/common/menu.o
 .reginfo       0x0000000000000000        0x0 platform/common/fonts.o
 .reginfo       0x0000000000000000        0x0 platform/common/readpng.o
 .reginfo       0x0000000000000000        0x0 platform/common/mp3_helix.o
 .reginfo       0x0000000000000000        0x0 Pico/Area.o
 .reginfo       0x0000000000000000        0x0 Pico/Cart.o
 .reginfo       0x0000000000000000        0x0 Pico/Memory.o
 .reginfo       0x0000000000000000        0x0 Pico/Misc.o
 .reginfo       0x0000000000000000        0x0 Pico/Pico.o
 .reginfo       0x0000000000000000        0x0 Pico/Sek.o
 .reginfo       0x0000000000000000        0x0 Pico/VideoPort.o
 .reginfo       0x0000000000000000        0x0 Pico/Draw2.o
 .reginfo       0x0000000000000000        0x0 Pico/Draw.o
 .reginfo       0x0000000000000000        0x0 Pico/Patch.o
 .reginfo       0x0000000000000000        0x0 Pico/cd/Pico.o
 .reginfo       0x0000000000000000        0x0 Pico/cd/Memory.o
 .reginfo       0x0000000000000000        0x0 Pico/cd/Sek.o
 .reginfo       0x0000000000000000        0x0 Pico/cd/LC89510.o
 .reginfo       0x0000000000000000        0x0 Pico/cd/cd_sys.o
 .reginfo       0x0000000000000000        0x0 Pico/cd/cd_file.o
 .reginfo       0x0000000000000000        0x0 Pico/cd/gfx_cd.o
 .reginfo       0x0000000000000000        0x0 Pico/cd/Area.o
 .reginfo       0x0000000000000000        0x0 Pico/cd/Misc.o
 .reginfo       0x0000000000000000        0x0 Pico/cd/pcm.o
 .reginfo       0x0000000000000000        0x0 Pico/cd/buffering.o
 .reginfo       0x0000000000000000        0x0 Pico/sound/sound.o
 .reginfo       0x0000000000000000        0x0 Pico/sound/sn76496.o
 .reginfo       0x0000000000000000        0x0 Pico/sound/ym2612.o
 .reginfo       0x0000000000000000        0x0 Pico/sound/mix.o
 .reginfo       0x0000000000000000        0x0 zlib/gzio.o
 .reginfo       0x0000000000000000        0x0 zlib/inffast.o
 .reginfo       0x0000000000000000        0x0 zlib/inflate.o
 .reginfo       0x0000000000000000        0x0 zlib/inftrees.o
 .reginfo       0x0000000000000000        0x0 zlib/trees.o
 .reginfo       0x0000000000000000        0x0 zlib/deflate.o
 .reginfo       0x0000000000000000        0x0 zlib/crc32.o
 .reginfo       0x0000000000000000        0x0 zlib/adler32.o
 .reginfo       0x0000000000000000        0x0 zlib/zutil.o
 .reginfo       0x0000000000000000        0x0 zlib/compress.o
 .reginfo       0x0000000000000000        0x0 zlib/uncompr.o
 .reginfo       0x0000000000000000        0x0 unzip/unzip.o
 .reginfo       0x0000000000000000        0x0 unzip/unzip_stream.o
 .reginfo       0x0000000000000000        0x0 cpu/musashi/m68kops.o
 .reginfo       0x0000000000000000        0x0 cpu/musashi/m68kcpu.o
 .reginfo       0x0000000000000000        0x0 cpu/fame/famec.o
 .reginfo       0x0000000000000000        0x0 cpu/cz80/cz80.o
 .reginfo       0x0000000000000000        0x0 Pico/Debug.o
 .reginfo       0x0000000000000000        0x0 cpu/musashi/m68kdasm.o
 .reginfo       0x0000000000000000        0x0 /opt/mipsel-linux-uclibc/usr/lib/libm.a(s_floor.os)
 .reginfo       0x0000000000000000        0x0 /opt/mipsel-linux-uclibc/usr/lib/libm.a(s_sin.os)
 .reginfo       0x0000000000000000        0x0 /opt/mipsel-linux-uclibc/usr/lib/libm.a(w_log.os)
 .reginfo       0x0000000000000000        0x0 /opt/mipsel-linux-uclibc/usr/lib/libm.a(w_pow.os)
 .reginfo       0x0000000000000000        0x0 /opt/mipsel-linux-uclibc/usr/lib/libm.a(e_log.os)
 .reginfo       0x0000000000000000        0x0 /opt/mipsel-linux-uclibc/usr/lib/libm.a(e_pow.os)
 .reginfo       0x0000000000000000        0x0 /opt/mipsel-linux-uclibc/usr/lib/libm.a(e_rem_pio2.os)
 .reginfo       0x0000000000000000        0x0 /opt/mipsel-linux-uclibc/usr/lib/libm.a(e_sqrt.os)
 .reginfo       0x0000000000000000        0x0 /opt/mipsel-linux-uclibc/usr/lib/libm.a(k_cos.os)
 .reginfo       0x0000000000000000        0x0 /opt/mipsel-linux-uclibc/usr/lib/libm.a(k_rem_pio2.os)
 .reginfo       0x0000000000000000        0x0 /opt/mipsel-linux-uclibc/usr/lib/libm.a(k_sin.os)
 .reginfo       0x0000000000000000        0x0 /opt/mipsel-linux-uclibc/usr/lib/libm.a(s_fabs.os)
 .reginfo       0x0000000000000000        0x0 /opt/mipsel-linux-uclibc/usr/lib/libm.a(s_scalbn.os)
 .reginfo       0x0000000000000000        0x0 /opt/mipsel-linux-uclibc/usr/lib/libm.a(s_copysign.os)
 .reginfo       0x0000000000000000        0x0 /opt/mipsel-linux-uclibc/usr/lib/libpng.a(libpng12_la-png.o)
 .reginfo       0x0000000000000000        0x0 /opt/mipsel-linux-uclibc/usr/lib/libpng.a(libpng12_la-pngget.o)
 .reginfo       0x0000000000000000        0x0 /opt/mipsel-linux-uclibc/usr/lib/libpng.a(libpng12_la-pngread.o)
 .reginfo       0x0000000000000000        0x0 /opt/mipsel-linux-uclibc/usr/lib/libpng.a(libpng12_la-pngrio.o)
 .reginfo       0x0000000000000000        0x0 /opt/mipsel-linux-uclibc/usr/lib/libpng.a(libpng12_la-pngrtran.o)
 .reginfo       0x0000000000000000        0x0 /opt/mipsel-linux-uclibc/usr/lib/libpng.a(libpng12_la-pngmem.o)
 .reginfo       0x0000000000000000        0x0 /opt/mipsel-linux-uclibc/usr/lib/libpng.a(libpng12_la-pngerror.o)
 .reginfo       0x0000000000000000        0x0 /opt/mipsel-linux-uclibc/usr/lib/libpng.a(libpng12_la-pngrutil.o)
 .reginfo       0x0000000000000000        0x0 /opt/mipsel-linux-uclibc/usr/lib/libpng.a(libpng12_la-pngtrans.o)
 .reginfo       0x0000000000000000        0x0 /opt/mipsel-linux-uclibc/usr/lib/libpng.a(libpng12_la-pngset.o)
 .reginfo       0x0000000000000000        0x0 /opt/mipsel-linux-uclibc/usr/bin/../lib/gcc/mipsel-linux-uclibc/4.3.3/libgcc.a(_fixunssfsi.o)
 .reginfo       0x0000000000000000        0x0 /opt/mipsel-linux-uclibc/usr/bin/../lib/gcc/mipsel-linux-uclibc/4.3.3/libgcc.a(_fixunsdfsi.o)
 .reginfo       0x0000000000000000        0x0 /opt/mipsel-linux-uclibc/usr/bin/../lib/gcc/mipsel-linux-uclibc/4.3.3/libgcc.a(_addsub_sf.o)
 .reginfo       0x0000000000000000        0x0 /opt/mipsel-linux-uclibc/usr/bin/../lib/gcc/mipsel-linux-uclibc/4.3.3/libgcc.a(_mul_sf.o)
 .reginfo       0x0000000000000000        0x0 /opt/mipsel-linux-uclibc/usr/bin/../lib/gcc/mipsel-linux-uclibc/4.3.3/libgcc.a(_div_sf.o)
 .reginfo       0x0000000000000000        0x0 /opt/mipsel-linux-uclibc/usr/bin/../lib/gcc/mipsel-linux-uclibc/4.3.3/libgcc.a(_ne_sf.o)
 .reginfo       0x0000000000000000        0x0 /opt/mipsel-linux-uclibc/usr/bin/../lib/gcc/mipsel-linux-uclibc/4.3.3/libgcc.a(_ge_sf.o)
 .reginfo       0x0000000000000000        0x0 /opt/mipsel-linux-uclibc/usr/bin/../lib/gcc/mipsel-linux-uclibc/4.3.3/libgcc.a(_si_to_sf.o)
 .reginfo       0x0000000000000000        0x0 /opt/mipsel-linux-uclibc/usr/bin/../lib/gcc/mipsel-linux-uclibc/4.3.3/libgcc.a(_sf_to_si.o)
 .reginfo       0x0000000000000000        0x0 /opt/mipsel-linux-uclibc/usr/bin/../lib/gcc/mipsel-linux-uclibc/4.3.3/libgcc.a(_sf_to_df.o)
 .reginfo       0x0000000000000000        0x0 /opt/mipsel-linux-uclibc/usr/bin/../lib/gcc/mipsel-linux-uclibc/4.3.3/libgcc.a(_thenan_sf.o)
 .reginfo       0x0000000000000000        0x0 /opt/mipsel-linux-uclibc/usr/bin/../lib/gcc/mipsel-linux-uclibc/4.3.3/libgcc.a(_usi_to_sf.o)
 .reginfo       0x0000000000000000        0x0 /opt/mipsel-linux-uclibc/usr/bin/../lib/gcc/mipsel-linux-uclibc/4.3.3/libgcc.a(_addsub_df.o)
 .reginfo       0x0000000000000000        0x0 /opt/mipsel-linux-uclibc/usr/bin/../lib/gcc/mipsel-linux-uclibc/4.3.3/libgcc.a(_mul_df.o)
 .reginfo       0x0000000000000000        0x0 /opt/mipsel-linux-uclibc/usr/bin/../lib/gcc/mipsel-linux-uclibc/4.3.3/libgcc.a(_div_df.o)
 .reginfo       0x0000000000000000        0x0 /opt/mipsel-linux-uclibc/usr/bin/../lib/gcc/mipsel-linux-uclibc/4.3.3/libgcc.a(_eq_df.o)
 .reginfo       0x0000000000000000        0x0 /opt/mipsel-linux-uclibc/usr/bin/../lib/gcc/mipsel-linux-uclibc/4.3.3/libgcc.a(_gt_df.o)
 .reginfo       0x0000000000000000        0x0 /opt/mipsel-linux-uclibc/usr/bin/../lib/gcc/mipsel-linux-uclibc/4.3.3/libgcc.a(_ge_df.o)
 .reginfo       0x0000000000000000        0x0 /opt/mipsel-linux-uclibc/usr/bin/../lib/gcc/mipsel-linux-uclibc/4.3.3/libgcc.a(_lt_df.o)
 .reginfo       0x0000000000000000        0x0 /opt/mipsel-linux-uclibc/usr/bin/../lib/gcc/mipsel-linux-uclibc/4.3.3/libgcc.a(_le_df.o)
 .reginfo       0x0000000000000000        0x0 /opt/mipsel-linux-uclibc/usr/bin/../lib/gcc/mipsel-linux-uclibc/4.3.3/libgcc.a(_si_to_df.o)
 .reginfo       0x0000000000000000        0x0 /opt/mipsel-linux-uclibc/usr/bin/../lib/gcc/mipsel-linux-uclibc/4.3.3/libgcc.a(_df_to_si.o)
 .reginfo       0x0000000000000000        0x0 /opt/mipsel-linux-uclibc/usr/bin/../lib/gcc/mipsel-linux-uclibc/4.3.3/libgcc.a(_make_df.o)
 .reginfo       0x0000000000000000        0x0 /opt/mipsel-linux-uclibc/usr/bin/../lib/gcc/mipsel-linux-uclibc/4.3.3/libgcc.a(_df_to_sf.o)
 .reginfo       0x0000000000000000        0x0 /opt/mipsel-linux-uclibc/usr/bin/../lib/gcc/mipsel-linux-uclibc/4.3.3/libgcc.a(_thenan_df.o)
 .reginfo       0x0000000000000000        0x0 /opt/mipsel-linux-uclibc/usr/bin/../lib/gcc/mipsel-linux-uclibc/4.3.3/libgcc.a(_usi_to_df.o)
 .reginfo       0x0000000000000000        0x0 /opt/mipsel-linux-uclibc/usr/bin/../lib/gcc/mipsel-linux-uclibc/4.3.3/libgcc.a(_lshrdi3.o)
 .reginfo       0x0000000000000000        0x0 /opt/mipsel-linux-uclibc/usr/bin/../lib/gcc/mipsel-linux-uclibc/4.3.3/libgcc.a(_ashldi3.o)
 .reginfo       0x0000000000000000        0x0 /opt/mipsel-linux-uclibc/usr/bin/../lib/gcc/mipsel-linux-uclibc/4.3.3/libgcc.a(_ucmpdi2.o)
 .reginfo       0x0000000000000000        0x0 /opt/mipsel-linux-uclibc/usr/bin/../lib/gcc/mipsel-linux-uclibc/4.3.3/libgcc.a(_clzsi2.o)
 .reginfo       0x0000000000000000        0x0 /opt/mipsel-linux-uclibc/usr/bin/../lib/gcc/mipsel-linux-uclibc/4.3.3/libgcc.a(_pack_sf.o)
 .reginfo       0x0000000000000000        0x0 /opt/mipsel-linux-uclibc/usr/bin/../lib/gcc/mipsel-linux-uclibc/4.3.3/libgcc.a(_unpack_sf.o)
 .reginfo       0x0000000000000000        0x0 /opt/mipsel-linux-uclibc/usr/bin/../lib/gcc/mipsel-linux-uclibc/4.3.3/libgcc.a(_fpcmp_parts_sf.o)
 .reginfo       0x0000000000000000        0x0 /opt/mipsel-linux-uclibc/usr/bin/../lib/gcc/mipsel-linux-uclibc/4.3.3/libgcc.a(_make_sf.o)
 .reginfo       0x0000000000000000        0x0 /opt/mipsel-linux-uclibc/usr/bin/../lib/gcc/mipsel-linux-uclibc/4.3.3/libgcc.a(_pack_df.o)
 .reginfo       0x0000000000000000        0x0 /opt/mipsel-linux-uclibc/usr/bin/../lib/gcc/mipsel-linux-uclibc/4.3.3/libgcc.a(_unpack_df.o)
 .reginfo       0x0000000000000000        0x0 /opt/mipsel-linux-uclibc/usr/bin/../lib/gcc/mipsel-linux-uclibc/4.3.3/libgcc.a(_fpcmp_parts_df.o)
 .reginfo       0x0000000000000000        0x0 /opt/mipsel-linux-uclibc/usr/bin/../lib/gcc/mipsel-linux-uclibc/4.3.3/libgcc.a(_clz.o)
 .reginfo       0x0000000000000000        0x0 /opt/mipsel-linux-uclibc/usr/lib/libc.a(mmap.os)
 .reginfo       0x0000000000000000        0x0 /opt/mipsel-linux-uclibc/usr/lib/libc.a(bsd-_setjmp.os)
 .note.GNU-stack
                0x0000000000000000        0x0 /opt/mipsel-linux-uclibc/usr/lib/libc.a(bsd-_setjmp.os)
 .reginfo       0x0000000000000000        0x0 /opt/mipsel-linux-uclibc/usr/lib/libc.a(setjmp.os)
 .note.GNU-stack
                0x0000000000000000        0x0 /opt/mipsel-linux-uclibc/usr/lib/libc.a(setjmp.os)
 .reginfo       0x0000000000000000        0x0 /opt/mipsel-linux-uclibc/usr/lib/libc.a(close.os)
 .reginfo       0x0000000000000000        0x0 /opt/mipsel-linux-uclibc/usr/lib/libc.a(dup.os)
 .reginfo       0x0000000000000000        0x0 /opt/mipsel-linux-uclibc/usr/lib/libc.a(getcwd.os)
 .reginfo       0x0000000000000000        0x0 /opt/mipsel-linux-uclibc/usr/lib/libc.a(geteuid.os)
 .reginfo       0x0000000000000000        0x0 /opt/mipsel-linux-uclibc/usr/lib/libc.a(getpagesize.os)
 .reginfo       0x0000000000000000        0x0 /opt/mipsel-linux-uclibc/usr/lib/libc.a(gettimeofday.os)
 .reginfo       0x0000000000000000        0x0 /opt/mipsel-linux-uclibc/usr/lib/libc.a(ioctl.os)
 .reginfo       0x0000000000000000        0x0 /opt/mipsel-linux-uclibc/usr/lib/libc.a(longjmp.os)
 .reginfo       0x0000000000000000        0x0 /opt/mipsel-linux-uclibc/usr/lib/libc.a(mkdir.os)
 .reginfo       0x0000000000000000        0x0 /opt/mipsel-linux-uclibc/usr/lib/libc.a(munmap.os)
 .reginfo       0x0000000000000000        0x0 /opt/mipsel-linux-uclibc/usr/lib/libc.a(open.os)
 .reginfo       0x0000000000000000        0x0 /opt/mipsel-linux-uclibc/usr/lib/libc.a(read.os)
 .reginfo       0x0000000000000000        0x0 /opt/mipsel-linux-uclibc/usr/lib/libc.a(sigprocmask.os)
 .reginfo       0x0000000000000000        0x0 /opt/mipsel-linux-uclibc/usr/lib/libc.a(__syscall_fcntl.os)
 .reginfo       0x0000000000000000        0x0 /opt/mipsel-linux-uclibc/usr/lib/libc.a(write.os)
 .reginfo       0x0000000000000000        0x0 /opt/mipsel-linux-uclibc/usr/lib/libc.a(__C_ctype_b.os)
 .reginfo       0x0000000000000000        0x0 /opt/mipsel-linux-uclibc/usr/lib/libc.a(__C_ctype_tolower.os)
 .reginfo       0x0000000000000000        0x0 /opt/mipsel-linux-uclibc/usr/lib/libc.a(alphasort.os)
 .reginfo       0x0000000000000000        0x0 /opt/mipsel-linux-uclibc/usr/lib/libc.a(closedir.os)
 .reginfo       0x0000000000000000        0x0 /opt/mipsel-linux-uclibc/usr/lib/libc.a(opendir.os)
 .reginfo       0x0000000000000000        0x0 /opt/mipsel-linux-uclibc/usr/lib/libc.a(scandir.os)
 .reginfo       0x0000000000000000        0x0 /opt/mipsel-linux-uclibc/usr/lib/libc.a(__errno_location.os)
 .reginfo       0x0000000000000000        0x0 /opt/mipsel-linux-uclibc/usr/lib/libc.a(fclose.os)
 .reginfo       0x0000000000000000        0x0 /opt/mipsel-linux-uclibc/usr/lib/libc.a(fdopen.os)
 .reginfo       0x0000000000000000        0x0 /opt/mipsel-linux-uclibc/usr/lib/libc.a(fopen.os)
 .reginfo       0x0000000000000000        0x0 /opt/mipsel-linux-uclibc/usr/lib/libc.a(fseeko.os)
 .reginfo       0x0000000000000000        0x0 /opt/mipsel-linux-uclibc/usr/lib/libc.a(ftello.os)
 .reginfo       0x0000000000000000        0x0 /opt/mipsel-linux-uclibc/usr/lib/libc.a(perror.os)
 .reginfo       0x0000000000000000        0x0 /opt/mipsel-linux-uclibc/usr/lib/libc.a(puts.os)
 .reginfo       0x0000000000000000        0x0 /opt/mipsel-linux-uclibc/usr/lib/libc.a(setvbuf.os)
 .reginfo       0x0000000000000000        0x0 /opt/mipsel-linux-uclibc/usr/lib/libc.a(printf.os)
 .reginfo       0x0000000000000000        0x0 /opt/mipsel-linux-uclibc/usr/lib/libc.a(vsprintf.os)
 .reginfo       0x0000000000000000        0x0 /opt/mipsel-linux-uclibc/usr/lib/libc.a(fprintf.os)
 .reginfo       0x0000000000000000        0x0 /opt/mipsel-linux-uclibc/usr/lib/libc.a(snprintf.os)
 .reginfo       0x0000000000000000        0x0 /opt/mipsel-linux-uclibc/usr/lib/libc.a(sprintf.os)
 .reginfo       0x0000000000000000        0x0 /opt/mipsel-linux-uclibc/usr/lib/libc.a(vsnprintf.os)
 .reginfo       0x0000000000000000        0x0 /opt/mipsel-linux-uclibc/usr/lib/libc.a(fseeko64.os)
 .reginfo       0x0000000000000000        0x0 /opt/mipsel-linux-uclibc/usr/lib/libc.a(ftello64.os)
 .reginfo       0x0000000000000000        0x0 /opt/mipsel-linux-uclibc/usr/lib/libc.a(_adjust_pos.os)
 .reginfo       0x0000000000000000        0x0 /opt/mipsel-linux-uclibc/usr/lib/libc.a(_fopen.os)
 .reginfo       0x0000000000000000        0x0 /opt/mipsel-linux-uclibc/usr/lib/libc.a(_stdio.os)
 .reginfo       0x0000000000000000        0x0 /opt/mipsel-linux-uclibc/usr/lib/libc.a(_wcommit.os)
 .reginfo       0x0000000000000000        0x0 /opt/mipsel-linux-uclibc/usr/lib/libc.a(_cs_funcs.os)
 .reginfo       0x0000000000000000        0x0 /opt/mipsel-linux-uclibc/usr/lib/libc.a(vfprintf.os)
 .reginfo       0x0000000000000000        0x0 /opt/mipsel-linux-uclibc/usr/lib/libc.a(_vfprintf_internal.os)
 .reginfo       0x0000000000000000        0x0 /opt/mipsel-linux-uclibc/usr/lib/libc.a(_ppfs_init.os)
 .reginfo       0x0000000000000000        0x0 /opt/mipsel-linux-uclibc/usr/lib/libc.a(_ppfs_prepargs.os)
 .reginfo       0x0000000000000000        0x0 /opt/mipsel-linux-uclibc/usr/lib/libc.a(_ppfs_setargs.os)
 .reginfo       0x0000000000000000        0x0 /opt/mipsel-linux-uclibc/usr/lib/libc.a(_ppfs_parsespec.os)
 .reginfo       0x0000000000000000        0x0 /opt/mipsel-linux-uclibc/usr/lib/libc.a(clearerr.os)
 .reginfo       0x0000000000000000        0x0 /opt/mipsel-linux-uclibc/usr/lib/libc.a(feof.os)
 .reginfo       0x0000000000000000        0x0 /opt/mipsel-linux-uclibc/usr/lib/libc.a(ferror.os)
 .reginfo       0x0000000000000000        0x0 /opt/mipsel-linux-uclibc/usr/lib/libc.a(fflush.os)
 .reginfo       0x0000000000000000        0x0 /opt/mipsel-linux-uclibc/usr/lib/libc.a(fgets.os)
 .reginfo       0x0000000000000000        0x0 /opt/mipsel-linux-uclibc/usr/lib/libc.a(fputc.os)
 .reginfo       0x0000000000000000        0x0 /opt/mipsel-linux-uclibc/usr/lib/libc.a(fread.os)
 .reginfo       0x0000000000000000        0x0 /opt/mipsel-linux-uclibc/usr/lib/libc.a(fwrite.os)
 .reginfo       0x0000000000000000        0x0 /opt/mipsel-linux-uclibc/usr/lib/libc.a(putchar.os)
 .reginfo       0x0000000000000000        0x0 /opt/mipsel-linux-uclibc/usr/lib/libc.a(fflush_unlocked.os)
 .reginfo       0x0000000000000000        0x0 /opt/mipsel-linux-uclibc/usr/lib/libc.a(fgets_unlocked.os)
 .reginfo       0x0000000000000000        0x0 /opt/mipsel-linux-uclibc/usr/lib/libc.a(fputc_unlocked.os)
 .reginfo       0x0000000000000000        0x0 /opt/mipsel-linux-uclibc/usr/lib/libc.a(fputs_unlocked.os)
 .reginfo       0x0000000000000000        0x0 /opt/mipsel-linux-uclibc/usr/lib/libc.a(fread_unlocked.os)
 .reginfo       0x0000000000000000        0x0 /opt/mipsel-linux-uclibc/usr/lib/libc.a(fwrite_unlocked.os)
 .reginfo       0x0000000000000000        0x0 /opt/mipsel-linux-uclibc/usr/lib/libc.a(memcpy.os)
 .note.GNU-stack
                0x0000000000000000        0x0 /opt/mipsel-linux-uclibc/usr/lib/libc.a(memcpy.os)
 .reginfo       0x0000000000000000        0x0 /opt/mipsel-linux-uclibc/usr/lib/libc.a(memset.os)
 .note.GNU-stack
                0x0000000000000000        0x0 /opt/mipsel-linux-uclibc/usr/lib/libc.a(memset.os)
 .reginfo       0x0000000000000000        0x0 /opt/mipsel-linux-uclibc/usr/lib/libc.a(memcmp.os)
 .reginfo       0x0000000000000000        0x0 /opt/mipsel-linux-uclibc/usr/lib/libc.a(memmove.os)
 .reginfo       0x0000000000000000        0x0 /opt/mipsel-linux-uclibc/usr/lib/libc.a(strcat.os)
 .reginfo       0x0000000000000000        0x0 /opt/mipsel-linux-uclibc/usr/lib/libc.a(strchr.os)
 .reginfo       0x0000000000000000        0x0 /opt/mipsel-linux-uclibc/usr/lib/libc.a(strcmp.os)
 .reginfo       0x0000000000000000        0x0 /opt/mipsel-linux-uclibc/usr/lib/libc.a(strcpy.os)
 .reginfo       0x0000000000000000        0x0 /opt/mipsel-linux-uclibc/usr/lib/libc.a(strlen.os)
 .reginfo       0x0000000000000000        0x0 /opt/mipsel-linux-uclibc/usr/lib/libc.a(strncmp.os)
 .reginfo       0x0000000000000000        0x0 /opt/mipsel-linux-uclibc/usr/lib/libc.a(strncpy.os)
 .reginfo       0x0000000000000000        0x0 /opt/mipsel-linux-uclibc/usr/lib/libc.a(strnlen.os)
 .reginfo       0x0000000000000000        0x0 /opt/mipsel-linux-uclibc/usr/lib/libc.a(strrchr.os)
 .reginfo       0x0000000000000000        0x0 /opt/mipsel-linux-uclibc/usr/lib/libc.a(strstr.os)
 .reginfo       0x0000000000000000        0x0 /opt/mipsel-linux-uclibc/usr/lib/libc.a(__glibc_strerror_r.os)
 .reginfo       0x0000000000000000        0x0 /opt/mipsel-linux-uclibc/usr/lib/libc.a(strcasecmp.os)
 .reginfo       0x0000000000000000        0x0 /opt/mipsel-linux-uclibc/usr/lib/libc.a(strerror.os)
 .reginfo       0x0000000000000000        0x0 /opt/mipsel-linux-uclibc/usr/lib/libc.a(strncasecmp.os)
 .reginfo       0x0000000000000000        0x0 /opt/mipsel-linux-uclibc/usr/lib/libc.a(__xpg_strerror_r.os)
 .reginfo       0x0000000000000000        0x0 /opt/mipsel-linux-uclibc/usr/lib/libc.a(isatty.os)
 .reginfo       0x0000000000000000        0x0 /opt/mipsel-linux-uclibc/usr/lib/libc.a(tcgetattr.os)
 .reginfo       0x0000000000000000        0x0 /opt/mipsel-linux-uclibc/usr/lib/libc.a(tcsetattr.os)
 .reginfo       0x0000000000000000        0x0 /opt/mipsel-linux-uclibc/usr/lib/libc.a(malloc.os)
 .reginfo       0x0000000000000000        0x0 /opt/mipsel-linux-uclibc/usr/lib/libc.a(calloc.os)
 .reginfo       0x0000000000000000        0x0 /opt/mipsel-linux-uclibc/usr/lib/libc.a(realloc.os)
 .reginfo       0x0000000000000000        0x0 /opt/mipsel-linux-uclibc/usr/lib/libc.a(free.os)
 .reginfo       0x0000000000000000        0x0 /opt/mipsel-linux-uclibc/usr/lib/libc.a(abort.os)
 .reginfo       0x0000000000000000        0x0 /opt/mipsel-linux-uclibc/usr/lib/libc.a(system.os)
 .reginfo       0x0000000000000000        0x0 /opt/mipsel-linux-uclibc/usr/lib/libc.a(strtol.os)
 .reginfo       0x0000000000000000        0x0 /opt/mipsel-linux-uclibc/usr/lib/libc.a(strtoul.os)
 .reginfo       0x0000000000000000        0x0 /opt/mipsel-linux-uclibc/usr/lib/libc.a(_stdlib_strto_l.os)
 .reginfo       0x0000000000000000        0x0 /opt/mipsel-linux-uclibc/usr/lib/libc.a(qsort.os)
 .reginfo       0x0000000000000000        0x0 /opt/mipsel-linux-uclibc/usr/lib/libc.a(strtod.os)
 .reginfo       0x0000000000000000        0x0 /opt/mipsel-linux-uclibc/usr/lib/libc.a(__strtofpmax.os)
 .reginfo       0x0000000000000000        0x0 /opt/mipsel-linux-uclibc/usr/lib/libc.a(__fp_range_check.os)
 .reginfo       0x0000000000000000        0x0 /opt/mipsel-linux-uclibc/usr/lib/libc.a(exit.os)
 .reginfo       0x0000000000000000        0x0 /opt/mipsel-linux-uclibc/usr/lib/libc.a(execl.os)
 .reginfo       0x0000000000000000        0x0 /opt/mipsel-linux-uclibc/usr/lib/libc.a(sysconf.os)
 .reginfo       0x0000000000000000        0x0 /opt/mipsel-linux-uclibc/usr/lib/libc.a(usleep.os)
 .reginfo       0x0000000000000000        0x0 /opt/mipsel-linux-uclibc/usr/lib/libc.a(__uClibc_main.os)
 .reginfo       0x0000000000000000        0x0 /opt/mipsel-linux-uclibc/usr/lib/libc.a(__longjmp.os)
 .reginfo       0x0000000000000000        0x0 /opt/mipsel-linux-uclibc/usr/lib/libc.a(setjmp_aux.os)
 .reginfo       0x0000000000000000        0x0 /opt/mipsel-linux-uclibc/usr/lib/libc.a(sigaction.os)
 .reginfo       0x0000000000000000        0x0 /opt/mipsel-linux-uclibc/usr/lib/libc.a(clock_getres.os)
 .reginfo       0x0000000000000000        0x0 /opt/mipsel-linux-uclibc/usr/lib/libc.a(execve.os)
 .reginfo       0x0000000000000000        0x0 /opt/mipsel-linux-uclibc/usr/lib/libc.a(_exit.os)
 .reginfo       0x0000000000000000        0x0 /opt/mipsel-linux-uclibc/usr/lib/libc.a(fork.os)
 .reginfo       0x0000000000000000        0x0 /opt/mipsel-linux-uclibc/usr/lib/libc.a(fstat.os)
 .reginfo       0x0000000000000000        0x0 /opt/mipsel-linux-uclibc/usr/lib/libc.a(getdtablesize.os)
 .reginfo       0x0000000000000000        0x0 /opt/mipsel-linux-uclibc/usr/lib/libc.a(getegid.os)
 .reginfo       0x0000000000000000        0x0 /opt/mipsel-linux-uclibc/usr/lib/libc.a(getgid.os)
 .reginfo       0x0000000000000000        0x0 /opt/mipsel-linux-uclibc/usr/lib/libc.a(getrlimit.os)
 .reginfo       0x0000000000000000        0x0 /opt/mipsel-linux-uclibc/usr/lib/libc.a(getuid.os)
 .reginfo       0x0000000000000000        0x0 /opt/mipsel-linux-uclibc/usr/lib/libc.a(llseek.os)
 .reginfo       0x0000000000000000        0x0 /opt/mipsel-linux-uclibc/usr/lib/libc.a(mremap.os)
 .reginfo       0x0000000000000000        0x0 /opt/mipsel-linux-uclibc/usr/lib/libc.a(nanosleep.os)
 .reginfo       0x0000000000000000        0x0 /opt/mipsel-linux-uclibc/usr/lib/libc.a(sbrk.os)
 .reginfo       0x0000000000000000        0x0 /opt/mipsel-linux-uclibc/usr/lib/libc.a(__syscall_fcntl64.os)
 .reginfo       0x0000000000000000        0x0 /opt/mipsel-linux-uclibc/usr/lib/libc.a(__syscall_rt_sigaction.os)
 .reginfo       0x0000000000000000        0x0 /opt/mipsel-linux-uclibc/usr/lib/libc.a(wait4.os)
 .reginfo       0x0000000000000000        0x0 /opt/mipsel-linux-uclibc/usr/lib/libc.a(xstatconv.os)
 .reginfo       0x0000000000000000        0x0 /opt/mipsel-linux-uclibc/usr/lib/libc.a(readdir.os)
 .reginfo       0x0000000000000000        0x0 /opt/mipsel-linux-uclibc/usr/lib/libc.a(errno.os)
 .reginfo       0x0000000000000000        0x0 /opt/mipsel-linux-uclibc/usr/lib/libc.a(_READ.os)
 .reginfo       0x0000000000000000        0x0 /opt/mipsel-linux-uclibc/usr/lib/libc.a(_WRITE.os)
 .reginfo       0x0000000000000000        0x0 /opt/mipsel-linux-uclibc/usr/lib/libc.a(_fwrite.os)
 .reginfo       0x0000000000000000        0x0 /opt/mipsel-linux-uclibc/usr/lib/libc.a(_trans2r.os)
 .reginfo       0x0000000000000000        0x0 /opt/mipsel-linux-uclibc/usr/lib/libc.a(_trans2w.os)
 .reginfo       0x0000000000000000        0x0 /opt/mipsel-linux-uclibc/usr/lib/libc.a(_load_inttype.os)
 .reginfo       0x0000000000000000        0x0 /opt/mipsel-linux-uclibc/usr/lib/libc.a(_store_inttype.os)
 .reginfo       0x0000000000000000        0x0 /opt/mipsel-linux-uclibc/usr/lib/libc.a(_uintmaxtostr.os)
 .reginfo       0x0000000000000000        0x0 /opt/mipsel-linux-uclibc/usr/lib/libc.a(_fpmaxtostr.os)
 .reginfo       0x0000000000000000        0x0 /opt/mipsel-linux-uclibc/usr/lib/libc.a(fgetc_unlocked.os)
 .reginfo       0x0000000000000000        0x0 /opt/mipsel-linux-uclibc/usr/lib/libc.a(memchr.os)
 .reginfo       0x0000000000000000        0x0 /opt/mipsel-linux-uclibc/usr/lib/libc.a(mempcpy.os)
 .reginfo       0x0000000000000000        0x0 /opt/mipsel-linux-uclibc/usr/lib/libc.a(memrchr.os)
 .reginfo       0x0000000000000000        0x0 /opt/mipsel-linux-uclibc/usr/lib/libc.a(_string_syserrmsgs.os)
 .reginfo       0x0000000000000000        0x0 /opt/mipsel-linux-uclibc/usr/lib/libc.a(raise.os)
 .reginfo       0x0000000000000000        0x0 /opt/mipsel-linux-uclibc/usr/lib/libc.a(sigjmp.os)
 .reginfo       0x0000000000000000        0x0 /opt/mipsel-linux-uclibc/usr/lib/libc.a(signal.os)
 .reginfo       0x0000000000000000        0x0 /opt/mipsel-linux-uclibc/usr/lib/libc.a(sigsetops.os)
 .reginfo       0x0000000000000000        0x0 /opt/mipsel-linux-uclibc/usr/lib/libc.a(dl-support.os)
 .reginfo       0x0000000000000000        0x0 /opt/mipsel-linux-uclibc/usr/lib/libc.a(brk.os)
 .reginfo       0x0000000000000000        0x0 /opt/mipsel-linux-uclibc/usr/lib/libc.a(getdents.os)
 .reginfo       0x0000000000000000        0x0 /opt/mipsel-linux-uclibc/usr/lib/libc.a(getpid.os)
 .reginfo       0x0000000000000000        0x0 /opt/mipsel-linux-uclibc/usr/lib/libc.a(kill.os)
 .reginfo       0x0000000000000000        0x0 /opt/mipsel-linux-uclibc/usr/lib/libc.a(_rfill.os)
 .reginfo       0x0000000000000000        0x0 /opt/mipsel-linux-uclibc/usr/lib/libc.a(getdents64.os)
 .reginfo       0x0000000000000000        0x0 /opt/mipsel-linux-uclibc/usr/bin/../lib/gcc/mipsel-linux-uclibc/4.3.3/libgcc.a(_ne_df.o)
 .reginfo       0x0000000000000000        0x0 /opt/mipsel-linux-uclibc/usr/bin/../lib/gcc/mipsel-linux-uclibc/4.3.3/crtend.o
 .reginfo       0x0000000000000000        0x0 /opt/mipsel-linux-uclibc/usr/lib/crtn.o
 .note.GNU-stack
                0x0000000000000000        0x0 /opt/mipsel-linux-uclibc/usr/lib/crtn.o

Memory Configuration

Name             Origin             Length             Attributes
*default*        0x0000000000000000 0xffffffffffffffff

Linker script and memory map

LOAD /opt/mipsel-linux-uclibc/usr/lib/crt1.o
LOAD /opt/mipsel-linux-uclibc/usr/lib/crti.o
LOAD /opt/mipsel-linux-uclibc/usr/bin/../lib/gcc/mipsel-linux-uclibc/4.3.3/crtbeginT.o
LOAD platform/gp2x/main.o
LOAD platform/gp2x/menu.o
LOAD platform/gp2x/emu.o
LOAD platform/gp2x/usbjoy.o
LOAD blit.o
LOAD gp2x.o
LOAD log_io.o
LOAD platform/common/emu.o
LOAD platform/common/menu.o
LOAD platform/common/fonts.o
LOAD platform/common/readpng.o
LOAD platform/common/mp3_helix.o
LOAD Pico/Area.o
LOAD Pico/Cart.o
LOAD Pico/Memory.o
LOAD Pico/Misc.o
LOAD Pico/Pico.o
LOAD Pico/Sek.o
LOAD Pico/VideoPort.o
LOAD Pico/Draw2.o
LOAD Pico/Draw.o
LOAD Pico/Patch.o
LOAD Pico/cd/Pico.o
LOAD Pico/cd/Memory.o
LOAD Pico/cd/Sek.o
LOAD Pico/cd/LC89510.o
LOAD Pico/cd/cd_sys.o
LOAD Pico/cd/cd_file.o
LOAD Pico/cd/gfx_cd.o
LOAD Pico/cd/Area.o
LOAD Pico/cd/Misc.o
LOAD Pico/cd/pcm.o
LOAD Pico/cd/buffering.o
LOAD Pico/sound/sound.o
LOAD Pico/sound/sn76496.o
LOAD Pico/sound/ym2612.o
LOAD Pico/sound/mix.o
LOAD zlib/gzio.o
LOAD zlib/inffast.o
LOAD zlib/inflate.o
LOAD zlib/inftrees.o
LOAD zlib/trees.o
LOAD zlib/deflate.o
LOAD zlib/crc32.o
LOAD zlib/adler32.o
LOAD zlib/zutil.o
LOAD zlib/compress.o
LOAD zlib/uncompr.o
LOAD unzip/unzip.o
LOAD unzip/unzip_stream.o
LOAD cpu/musashi/m68kops.o
LOAD cpu/musashi/m68kcpu.o
LOAD cpu/fame/famec.o
LOAD cpu/cz80/cz80.o
LOAD Pico/Debug.o
LOAD cpu/musashi/m68kdasm.o
LOAD /opt/mipsel-linux-uclibc/usr/lib/libm.a
LOAD /opt/mipsel-linux-uclibc/usr/lib/libpng.a
START GROUP
LOAD /opt/mipsel-linux-uclibc/usr/bin/../lib/gcc/mipsel-linux-uclibc/4.3.3/libgcc.a
LOAD /opt/mipsel-linux-uclibc/usr/bin/../lib/gcc/mipsel-linux-uclibc/4.3.3/libgcc_eh.a
LOAD /opt/mipsel-linux-uclibc/usr/lib/libc.a
END GROUP
LOAD /opt/mipsel-linux-uclibc/usr/bin/../lib/gcc/mipsel-linux-uclibc/4.3.3/crtend.o
LOAD /opt/mipsel-linux-uclibc/usr/lib/crtn.o
                0x0000000000400000                PROVIDE (__executable_start, 0x400000)
                0x00000000004000b4                . = (0x400000 + SIZEOF_HEADERS)

.interp
 *(.interp)

.reginfo        0x00000000004000b4       0x18
 *(.reginfo)
 .reginfo       0x00000000004000b4       0x18 /opt/mipsel-linux-uclibc/usr/lib/crt1.o

.note.gnu.build-id
 *(.note.gnu.build-id)

.dynamic
 *(.dynamic)

.hash
 *(.hash)

.gnu.hash
 *(.gnu.hash)

.dynsym
 *(.dynsym)

.dynstr
 *(.dynstr)

.gnu.version
 *(.gnu.version)

.gnu.version_d
 *(.gnu.version_d)

.gnu.version_r
 *(.gnu.version_r)

.rel.dyn        0x00000000004000cc       0xd8
 *(.rel.init)
 *(.rel.text .rel.text.* .rel.gnu.linkonce.t.*)
 *(.rel.fini)
 *(.rel.rodata .rel.rodata.* .rel.gnu.linkonce.r.*)
 *(.rel.data.rel.ro* .rel.gnu.linkonce.d.rel.ro.*)
 *(.rel.data .rel.data.* .rel.gnu.linkonce.d.*)
 *(.rel.tdata .rel.tdata.* .rel.gnu.linkonce.td.*)
 *(.rel.tbss .rel.tbss.* .rel.gnu.linkonce.tb.*)
 *(.rel.ctors)
 *(.rel.dtors)
 *(.rel.got)
 *(.rel.dyn)
 .rel.dyn       0x00000000004000cc       0xd8 /opt/mipsel-linux-uclibc/usr/lib/crt1.o
 *(.rel.sdata .rel.sdata.* .rel.gnu.linkonce.s.*)
 *(.rel.sbss .rel.sbss.* .rel.gnu.linkonce.sb.*)
 *(.rel.sdata2 .rel.sdata2.* .rel.gnu.linkonce.s2.*)
 *(.rel.sbss2 .rel.sbss2.* .rel.gnu.linkonce.sb2.*)
 *(.rel.bss .rel.bss.* .rel.gnu.linkonce.b.*)

.rela.dyn
 *(.rela.init)
 *(.rela.text .rela.text.* .rela.gnu.linkonce.t.*)
 *(.rela.fini)
 *(.rela.rodata .rela.rodata.* .rela.gnu.linkonce.r.*)
 *(.rela.data .rela.data.* .rela.gnu.linkonce.d.*)
 *(.rela.tdata .rela.tdata.* .rela.gnu.linkonce.td.*)
 *(.rela.tbss .rela.tbss.* .rela.gnu.linkonce.tb.*)
 *(.rela.ctors)
 *(.rela.dtors)
 *(.rela.got)
 *(.rela.sdata .rela.sdata.* .rela.gnu.linkonce.s.*)
 *(.rela.sbss .rela.sbss.* .rela.gnu.linkonce.sb.*)
 *(.rela.sdata2 .rela.sdata2.* .rela.gnu.linkonce.s2.*)
 *(.rela.sbss2 .rela.sbss2.* .rela.gnu.linkonce.sb2.*)
 *(.rela.bss .rela.bss.* .rela.gnu.linkonce.b.*)

.rel.plt
 *(.rel.plt)

.rela.plt
 *(.rela.plt)

.init           0x00000000004001a4       0x80
 *(.init)
 .init          0x00000000004001a4       0x1c /opt/mipsel-linux-uclibc/usr/lib/crti.o
                0x00000000004001a4                _init
 .init          0x00000000004001c0       0x2c /opt/mipsel-linux-uclibc/usr/bin/../lib/gcc/mipsel-linux-uclibc/4.3.3/crtbeginT.o
 .init          0x00000000004001ec       0x2c /opt/mipsel-linux-uclibc/usr/bin/../lib/gcc/mipsel-linux-uclibc/4.3.3/crtend.o
 .init          0x0000000000400218        0xc /opt/mipsel-linux-uclibc/usr/lib/crtn.o

.plt
 *(.plt)

.text           0x0000000000400230   0x171c10
                0x0000000000400230                _ftext = .
 *(.text .stub .text.* .gnu.linkonce.t.*)
 .text          0x0000000000400230       0x60 /opt/mipsel-linux-uclibc/usr/lib/crt1.o
                0x0000000000400230                __start
 .text          0x0000000000400290        0x0 /opt/mipsel-linux-uclibc/usr/lib/crti.o
 .text          0x0000000000400290      0x150 /opt/mipsel-linux-uclibc/usr/bin/../lib/gcc/mipsel-linux-uclibc/4.3.3/crtbeginT.o
 .text          0x00000000004003e0      0x570 platform/gp2x/main.o
                0x00000000004003e0                parse_cmd_line
                0x0000000000400684                main
 .text          0x0000000000400950     0x8930 platform/gp2x/menu.o
                0x0000000000409038                menu_loop
                0x0000000000404d04                menu_loop_tray
                0x0000000000401624                menu_romload_prepare
                0x0000000000401a64                menu_romload_end
 .text          0x0000000000409280     0x4600 platform/gp2x/emu.o
                0x0000000000409320                emu_ResetGame
                0x000000000040c25c                emu_Loop
                0x00000000004097e0                osd_text
                0x0000000000409720                emu_forcedFrame
                0x0000000000409b84                emu_Deinit
                0x0000000000409458                emu_noticeMsgUpdated
                0x0000000000409d14                emu_Init
                0x0000000000409e08                emu_getMainDir
                0x000000000040935c                emu_setDefaultConfig
 .text          0x000000000040d880     0x1070 platform/gp2x/usbjoy.o
                0x000000000040dae8                gp2x_usbjoy_check2
                0x000000000040e4e8                joy_open
                0x000000000040e6e8                gp2x_usbjoy_init
                0x000000000040d8ac                joy_axes
                0x000000000040d880                joy_name
                0x000000000040d8f4                joy_getaxe
                0x000000000040e850                gp2x_usbjoy_deinit
                0x000000000040d8c0                joy_getbutton
                0x000000000040d88c                joy_device
                0x000000000040dd5c                joy_update
                0x000000000040d898                joy_buttons
                0x000000000040e47c                gp2x_usbjoy_update
                0x000000000040dd04                joy_close
                0x000000000040d924                gp2x_usbjoy_check
 .text          0x000000000040e8f0      0xe00 blit.o
                0x000000000040f3fc                vidCpyM2_32col_nobord
                0x000000000040eca0                vidConvCpyRGB32hi
                0x000000000040e8f0                vidConvCpyRGB32
                0x000000000040f114                vidCpyM2_32col
                0x000000000040ee5c                vidCpyM2_40col
                0x000000000040ea84                vidConvCpyRGB32sh
 .text          0x000000000040f6f0     0x16c0 gp2x.o
                0x000000000040fa38                gp2x_sound_sync
                0x000000000040fa0c                spend_cycles
                0x000000000040facc                gp2x_sound_write
                0x000000000040f900                gp2x_video_changemode
                0x000000000040f6f0                InGraphicsMode
                0x000000000040fa5c                gp2x_sound_volume
                0x000000000040f964                Pause940
                0x000000000040f9d4                set_gamma
                0x000000000040f918                gp2x_video_flush_cache
                0x000000000040f9b4                cpuctrl_deinit
                0x00000000004104ac                EnterGraphicsMode
                0x0000000000410300                pll_init
                0x000000000040faf0                gp2x_start_sound
                0x000000000040f9bc                Disable_940
                0x000000000040fd7c                gp2x_memcpy_buffers
                0x0000000000410b54                gp2x_deinit
                0x000000000040f9cc                set_RAM_Timings
                0x00000000004103a0                set_FCLK
                0x000000000040fd18                gp2x_pd_clone_buffer2
                0x000000000040f9ec                mmuhack
                0x000000000040f920                gp2x_video_RGB_setscaling
                0x000000000040f90c                gp2x_video_changemode2
                0x000000000040f9fc                lprintf
                0x000000000040fea4                OpenKeyboard
                0x000000000040f974                sdram_convert
                0x000000000040fda8                gp2x_video_setpalette
                0x00000000004103c0                CloseKeyboard
                0x000000000040f928                gp2x_joystick_read
                0x0000000000410770                gp2x_init
                0x000000000040f9dc                set_LCD_custom_rate
                0x000000000040f718                gp2x_video_flip
                0x000000000040f96c                Reset940
                0x000000000040f9c4                gp2x_video_wait_vsync
                0x000000000040fd58                gp2x_memcpy_all_buffers
                0x0000000000410118                gp2x_video_flip2
                0x000000000040fdcc                LeaveGraphicsMode
                0x000000000040fd3c                gp2x_memset_all_buffers
                0x000000000040f9e4                unset_LCD_custom_rate
                0x000000000040f9f4                mmuunhack
                0x000000000040f9ac                cpuctrl_init
 .text          0x0000000000410db0      0x7c0 log_io.o
                0x0000000000411358                log_io_dump
                0x0000000000410ee0                log_io
                0x0000000000410db0                log_io_clear
 .text          0x0000000000411570     0x2f40 platform/common/emu.o
                0x000000000041447c                emu_checkSaveFile
                0x00000000004125ac                emu_ReadConfig
                0x0000000000412b14                emu_findBios
                0x0000000000412334                emu_WriteConfig
                0x000000000041293c                emu_cdCheck
                0x0000000000412e04                emu_GetSaveFName
                0x00000000004137ac                emu_ReloadRom
                0x00000000004120ec                emu_updateMovie
                0x0000000000413100                emu_SaveLoadGame
                0x0000000000411938                emu_textOut8
                0x0000000000411658                emu_textOut16
                0x0000000000411570                emu_setSaveStateCbs
 .text          0x00000000004144b0     0x2ca0 platform/common/menu.o
                0x0000000000416c24                me_process
                0x0000000000414800                me_index2id
                0x0000000000416a08                me_enable
                0x000000000041468c                me_count_enabled
                0x0000000000416050                text_out16
                0x0000000000415d60                menu_draw_selection
                0x0000000000414a2c                me_id2offset
                0x0000000000414bd4                menu_init
                0x00000000004160d0                me_draw
                0x00000000004144b0                smalltext_out16
                0x0000000000416ee4                smalltext_out16_lim
 .text          0x0000000000417150        0x0 platform/common/fonts.o
 .text          0x0000000000417150      0x690 platform/common/readpng.o
                0x0000000000417150                readpng
 .text          0x00000000004177e0       0x30 platform/common/mp3_helix.o
                0x00000000004177f0                mp3_start_play
                0x00000000004177e8                mp3_start_local
                0x00000000004177f8                mp3_get_offset
                0x0000000000417800                mp3_update
                0x00000000004177e0                mp3_get_bitrate
 .text          0x0000000000417810      0x880 Pico/Area.o
                0x0000000000417810                PicoAreaUnpackCpu
                0x0000000000417b40                PmovState
                0x00000000004179a0                PicoAreaPackCpu
 .text          0x0000000000418090     0x2330 Pico/Cart.o
                0x00000000004181ac                PicoUnloadCart
                0x0000000000419b5c                PicoCartDetect
                0x0000000000418090                Byteswap
                0x0000000000418730                pm_read
                0x000000000041849c                pm_close
                0x0000000000418574                pm_seek
                0x000000000041a308                PicoCartInsert
                0x000000000041962c                pm_open
                0x0000000000418bbc                PicoCartLoad
 .text          0x000000000041a3c0     0x2ae0 Pico/Memory.o
                0x000000000041a3c8                PicoMemReset
                0x000000000041c2b8                m68k_read_disassembler_32
                0x000000000041cb38                PicoWrite16
                0x000000000041a3c0                PicoInitPc
                0x000000000041add4                m68k_write_memory_32
                0x000000000041ad04                m68k_read_memory_16
                0x000000000041ada8                m68k_write_memory_16
                0x000000000041ae00                m68k_read_memory_32
                0x000000000041b914                z80_write
                0x000000000041c36c                m68k_read_immediate_32
                0x000000000041c140                m68k_read_pcrelative_16
                0x000000000041c21c                m68k_read_disassembler_16
                0x000000000041baac                PicoRead16
                0x000000000041c064                m68k_read_pcrelative_8
                0x000000000041aa40                PicoMemSetup
                0x000000000041ac90                m68k_read_memory_8
                0x000000000041c420                m68k_read_pcrelative_32
                0x000000000041cbc4                z80_read
                0x000000000041bdbc                PicoRead32
                0x000000000041af00                m68k_read_immediate_16
                0x000000000041bbd0                PicoRead8
                0x000000000041a3d0                PadRead
                0x000000000041b300                PicoWrite8
                0x000000000041ad7c                m68k_write_memory_8
                0x000000000041af9c                m68k_read_disassembler_8
 .text          0x000000000041cea0     0x1b30 Pico/Misc.o
                0x000000000041d404                memset32
                0x000000000041cea0                SRAMUpdPending
                0x000000000041d67c                SRAMWriteEEPROM
                0x000000000041e114                memcpy16
                0x000000000041d128                memcpy32
                0x000000000041cf20                memcpy16bswap
                0x000000000041de9c                memset32_uncached
                0x000000000041dbc0                SRAMReadEEPROM
 .text          0x000000000041e9d0     0x2340 Pico/Pico.o
                0x000000000041e9d0                CheckDMA
                0x000000000041f014                PicoReset
                0x000000000041f510                PicoExit
                0x000000000041ef48                PicoFrameDrawOnly
                0x000000000041f588                PicoInit
                0x000000000041eaac                debugString
                0x000000000041f958                PicoFrame
 .text          0x0000000000420d10      0x2e0 Pico/Sek.o
                0x0000000000420e4c                SekReset
                0x0000000000420ee0                SekInit
                0x0000000000420df8                SekState
                0x0000000000420df0                SekSetRealTAS
 .text          0x0000000000420ff0     0x1660 Pico/VideoPort.o
                0x0000000000420ff0                PicoVideoRead
                0x0000000000421b90                PicoVideoWrite
 .text          0x0000000000422650     0x3b40 Pico/Draw2.o
                0x0000000000425cdc                PicoFrameFull
 .text          0x0000000000426190     0x6260 Pico/Draw.o
                0x0000000000426190                blockcpy_or
                0x000000000042b3c4                DrawStripVSRam
                0x000000000042816c                PicoFrameStart
                0x000000000042bff4                PicoLine
                0x000000000042822c                PicoDrawSetColorFormat
 .text          0x000000000042c3f0     0x1b70 Pico/Patch.o
                0x000000000042c644                PicoPatchPrepare
                0x000000000042c788                PicoPatchLoad
                0x000000000042c3f0                PicoPatchApply
                0x000000000042c738                PicoPatchUnload
 .text          0x000000000042df60     0x1420 Pico/cd/Pico.o
                0x000000000042df60                PicoResetMCD
                0x000000000042e24c                PicoInitMCD
                0x000000000042e290                PicoFrameMCD
                0x000000000042e238                PicoExitMCD
 .text          0x000000000042f380     0x4970 Pico/cd/Memory.o
                0x000000000042f58c                PicoMemSetupCD
                0x00000000004310a0                PicoWriteM68k8
                0x000000000042f4e4                PicoMemResetCD
                0x000000000042fb8c                m68k_read_pcrelative_CD16
                0x0000000000433cb8                PicoWriteCD16w
                0x0000000000432ec4                PicoReadCD16w
                0x000000000042f914                m68k_read_pcrelative_CD32
                0x0000000000433a08                PicoWriteCD32w
                0x0000000000432f24                PicoReadM68k8
                0x0000000000432c00                PicoReadCD32w
                0x000000000042fde8                m68k_read_pcrelative_CD8
                0x0000000000431694                PicoWriteCD8w
                0x00000000004332a8                PicoReadCD8w
 .text          0x0000000000433cf0      0x290 Pico/cd/Sek.o
                0x0000000000433dd8                SekResetS68k
                0x0000000000433e94                SekInitS68k
                0x0000000000433d78                SekInterruptS68k
 .text          0x0000000000433f80      0xfe0 Pico/cd/LC89510.o
                0x0000000000434684                CDC_Write_Reg
                0x000000000043426c                CDD_Import_Command
                0x0000000000434e30                LC89510_Reset
                0x0000000000434988                CDC_Update_Header
                0x0000000000434524                Read_CDC_Host
                0x0000000000434b54                Update_CDC_TRansfer
                0x0000000000433f80                CDC_Read_Reg
                0x0000000000434450                CDD_Export_Status
 .text          0x0000000000434f60     0x2920 Pico/cd/cd_sys.o
                0x000000000043533c                Get_Status_CDD_c0
                0x0000000000436390                Play_CDD_c3
                0x00000000004368a0                Resume_CDD_c7
                0x0000000000435fdc                Open_Tray_CDD_cD
                0x0000000000434f60                LBA_to_MSF
                0x0000000000435490                Get_Total_Lenght_CDD_c23
                0x0000000000435eb4                CDD_Def
                0x00000000004353cc                Stop_CDD_c1
                0x0000000000435a9c                Pause_CDD_c6
                0x0000000000435b80                Fast_Foward_CDD_c8
                0x0000000000436100                Stop_CD
                0x00000000004352e0                Reset_CD
                0x000000000043747c                Get_Current_Track_CDD_c22
                0x0000000000436730                Check_CD_Command
                0x000000000043614c                Seek_CDD_c4
                0x00000000004356f8                Get_First_Last_Track_CDD_c24
                0x0000000000436f48                Get_Track_Pos_CDD_c21
                0x0000000000435ddc                CDD_cA
                0x0000000000436698                Insert_CD
                0x0000000000435230                Track_to_LBA
                0x0000000000435830                Get_Track_Adr_CDD_c25
                0x00000000004352d8                Init_CD_Driver
                0x0000000000436d04                Get_Pos_CDD_c20
                0x0000000000436138                End_CD_Driver
                0x0000000000435efc                Close_Tray_CDD_cC
                0x0000000000435cac                Fast_Rewind_CDD_c9
 .text          0x0000000000437880     0x2310 Pico/cd/cd_file.o
                0x0000000000437c30                Unload_ISO
                0x0000000000437880                FILE_Play_CD_LBA
                0x00000000004379b0                FILE_Read_One_LBA_CDC
                0x0000000000437e2c                Load_ISO
 .text          0x0000000000439b90      0xe10 Pico/cd/gfx_cd.o
                0x0000000000439ce0                gfx_cd_update
                0x0000000000439b90                gfx_cd_read
                0x000000000043a37c                gfx_cd_write16
                0x0000000000439cac                gfx_cd_reset
                0x000000000043a5bc                DmaSlowCell
 .text          0x000000000043a9a0     0x1d60 Pico/cd/Area.o
                0x000000000043be74                PicoCdSaveState
                0x000000000043b004                PicoCdLoadState
                0x000000000043aa5c                PicoCdLoadStateGfx
 .text          0x000000000043c700      0x1f0 Pico/cd/Misc.o
                0x000000000043c7f4                wram_1M_to_2M
                0x000000000043c700                wram_2M_to_1M
 .text          0x000000000043c8f0      0x730 Pico/cd/pcm.o
                0x000000000043c8f0                pcm_write
                0x000000000043caf8                pcm_update
                0x000000000043cec0                pcm_set_rate
 .text          0x000000000043d020      0x6b0 Pico/cd/buffering.o
                0x000000000043d564                PicoCDBufferFree
                0x000000000043d614                PicoCDBufferInit
                0x000000000043d020                PicoCDBufferRead
 .text          0x000000000043d6d0     0x1540 Pico/sound/sound.o
                0x000000000043dc7c                PsndRender
                0x000000000043eba8                PsndReset
                0x000000000043dec4                z80_unpack
                0x000000000043dba4                PsndClear
                0x000000000043d980                z80_reset
                0x000000000043da0c                z80_init
                0x000000000043e044                PsndRerate
                0x000000000043d848                z80_exit
                0x000000000043d87c                z80_pack
                0x000000000043d850                z80_debug
                0x000000000043d6d0                Psnd_timers_and_dac
 .text          0x000000000043ec10      0x740 Pico/sound/sn76496.o
                0x000000000043ee9c                SN76496Update
                0x000000000043ec10                SN76496Write
                0x000000000043f174                SN76496_init
 .text          0x000000000043f350     0x7d00 Pico/sound/ym2612.o
                0x0000000000444bf4                YM2612UpdateOne_
                0x0000000000440104                YM2612GetRegs
                0x0000000000440110                YM2612ResetChip_
                0x0000000000440c1c                YM2612Init_
                0x000000000043f974                YM2612Write_
                0x000000000043fdb0                YM2612PicoStateLoad_
 .text          0x0000000000447050      0x8a0 Pico/sound/mix.o
                0x0000000000447558                mix_16h_to_32_s1
                0x0000000000447050                mix_32_to_16l_stereo
                0x0000000000447328                mix_16h_to_32
                0x0000000000447724                mix_16h_to_32_s2
                0x00000000004471a4                mix_32_to_16_mono
 .text          0x00000000004478f0     0x24d0 zlib/gzio.o
                0x0000000000448b4c                gzputc
                0x0000000000448854                gzflush
                0x0000000000447958                gzeof
                0x0000000000447998                gzdirect
                0x000000000044884c                gzopen
                0x0000000000448c94                gzclose
                0x0000000000447d08                gzrewind
                0x0000000000449c20                gzprintf
                0x0000000000449790                gzseek
                0x00000000004478f0                gzungetc
                0x0000000000447bcc                gzwrite
                0x0000000000448264                destroy
                0x00000000004487d4                gzdopen
                0x00000000004483a0                gzsetparams
                0x00000000004479c0                gzclearerr
                0x00000000004479f8                gzerror
                0x00000000004499e8                gztell
                0x00000000004499f4                gzgets
                0x0000000000449be4                gzgetc
                0x00000000004493d0                gzread
                0x0000000000448a00                gzputs
 .text          0x0000000000449dc0      0xc70 zlib/inffast.o
                0x0000000000449dc0                inflate_fast
 .text          0x000000000044aa30     0x60b0 zlib/inflate.o
                0x000000000044aa30                inflateReset
                0x000000000044ac24                inflateEnd
                0x000000000044aca0                inflateGetHeader
                0x000000000044ab00                inflateInit2_
                0x000000000044b74c                inflate
                0x000000000044acd8                inflateSync
                0x000000000044b5d8                inflateSetDictionary
                0x0000000000450a08                inflateInit_
                0x000000000044aaa0                inflatePrime
                0x000000000044b188                inflateSyncPoint
                0x000000000044b1c0                inflateCopy
 .text          0x0000000000450ae0      0xf40 zlib/inftrees.o
                0x0000000000450ae0                inflate_table
 .text          0x0000000000451a20     0x3a60 zlib/trees.o
                0x0000000000452634                _tr_align
                0x000000000045229c                _tr_stored_block
                0x0000000000451a20                _tr_init
                0x00000000004529d8                _tr_tally
                0x0000000000454154                _tr_flush_block
 .text          0x0000000000455480     0x4010 zlib/deflate.o
                0x00000000004562c8                deflate
                0x00000000004574fc                deflateInit_
                0x0000000000455480                deflateSetHeader
                0x000000000045551c                deflateEnd
                0x0000000000457018                deflateBound
                0x0000000000457074                deflateReset
                0x00000000004554e8                deflateTune
                0x00000000004554b4                deflatePrime
                0x000000000045564c                deflateCopy
                0x0000000000457200                deflateInit2_
                0x0000000000455f88                deflateSetDictionary
                0x0000000000456ee4                deflateParams
 .text          0x0000000000459490     0x1500 zlib/crc32.o
                0x000000000045949c                crc32
                0x000000000045a6b0                crc32_combine
                0x0000000000459490                get_crc_table
 .text          0x000000000045a990      0x6c0 zlib/adler32.o
                0x000000000045af74                adler32_combine
                0x000000000045a990                adler32
 .text          0x000000000045b050       0x60 zlib/zutil.o
                0x000000000045b064                zError
                0x000000000045b098                zcalloc
                0x000000000045b05c                zlibCompileFlags
                0x000000000045b050                zlibVersion
                0x000000000045b084                zcfree
 .text          0x000000000045b0b0      0x1d0 zlib/compress.o
                0x000000000045b1a4                compress
                0x000000000045b0c8                compress2
                0x000000000045b0b0                compressBound
 .text          0x000000000045b280      0x120 zlib/uncompr.o
                0x000000000045b280                uncompress
 .text          0x000000000045b3a0     0x1030 unzip/unzip.o
                0x000000000045b5a8                suspendzip
                0x000000000045b504                readcompresszip
                0x000000000045b5f0                closezip
                0x000000000045b67c                readzip
                0x000000000045b3a8                seekcompresszip
                0x000000000045b9cc                openzip
                0x000000000045c06c                readuncompresszip
                0x000000000045b3a0                rewindzip
 .text          0x000000000045c3d0      0x330 unzip/unzip_stream.o
                0x000000000045c3e4                zip2gz
                0x000000000045c3d0                gzerror2
 .text          0x000000000045c700    0x5d660 cpu/musashi/m68kops.o
                0x0000000000468ca0                m68k_op_sle_8_ai
                0x0000000000493e6c                m68k_op_divs_16_pcix
                0x00000000004678e8                m68k_op_asr_16_ai
                0x0000000000499e88                m68k_op_neg_32_di
                0x000000000047a318                m68k_op_chk2cmp2_16_aw
                0x00000000004b5bcc                m68k_op_move_32_pd_pcdi
                0x000000000047c134                m68k_op_move_32_ix_pd
                0x0000000000499564                m68k_op_ori_32_di
                0x000000000047a190                m68k_op_moves_16_ai
                0x0000000000479a1c                m68k_op_cmp_16_di
                0x00000000004b3c20                m68k_op_dbhi_16
                0x0000000000479ff0                m68k_op_traple
                0x0000000000484a1c                m68k_op_clr_32_al
                0x000000000048863c                m68k_op_move_8_al_pd
                0x000000000047a230                m68k_op_link_32
                0x00000000004affc8                m68k_op_move_8_di_pi
                0x00000000004a3340                m68k_op_and_8_er_i
                0x000000000046eddc                m68k_op_or_16_er_ai
                0x000000000047a450                m68k_op_cas_16_ai
                0x000000000047222c                m68k_op_adda_32_pd
                0x000000000046ccac                m68k_op_addq_8_pi7
                0x000000000047bdb4                m68k_op_move_32_ix_ai
                0x00000000004b1f74                m68k_op_bclr_8_s_ai
                0x0000000000478424                m68k_op_tst_16_aw
                0x000000000046c1cc                m68k_op_bclr_8_r_pd7
                0x0000000000485a54                m68k_op_ori_32_ix
                0x00000000004876dc                m68k_op_subq_8_al
                0x0000000000468f14                m68k_op_slt_8_pd
                0x000000000045c92c                m68k_op_add_32_er_d
                0x00000000004694dc                m68k_op_svs_8_pd
                0x000000000045f740                m68k_op_move_16_d_a
                0x0000000000479ef8                m68k_op_tst_8_i
                0x0000000000479f40                m68k_op_trapvs_32
                0x0000000000467568                m68k_op_asl_16_pi
                0x000000000047a370                m68k_op_chk2cmp2_8_pcix
                0x00000000004662e8                m68k_op_ror_16_pd
                0x00000000004b2450                m68k_op_bchg_8_s_di
                0x00000000004b30f0                m68k_op_andi_8_ai
                0x000000000046b8cc                m68k_op_eor_8_pd7
                0x00000000004989a8                m68k_op_subi_32_di
                0x000000000047a1e0                m68k_op_movec_32_rc
                0x0000000000475034                m68k_op_suba_16_pi
                0x000000000047721c                m68k_op_add_32_er_di
                0x0000000000489f48                m68k_op_sub_8_er_al
                0x0000000000473fe0                m68k_op_abcd_8_mm
                0x000000000045d43c                m68k_op_asr_32_r
                0x000000000048efa0                m68k_op_sub_16_er_pcix
                0x000000000046a960                m68k_op_negx_8_pd7
                0x00000000004a484c                m68k_op_move_16_aw_pd
                0x0000000000465af4                m68k_op_sub_16_re_ai
                0x000000000045ee78                m68k_op_lea_32_ai
                0x000000000045db5c                m68k_op_bcc_8
                0x000000000045e4c4                m68k_op_bchg_32_r_d
                0x000000000047a4a0                m68k_op_callm_32_pcix
                0x000000000046963c                m68k_op_svc_8_pd
                0x000000000045dcb4                m68k_op_bvc_8
                0x00000000004a3050                m68k_op_andi_8_d
                0x0000000000479f20                m68k_op_traplt_32
                0x00000000004ab53c                m68k_op_btst_8_s_pd7
                0x000000000045eebc                m68k_op_lsr_8_s
                0x0000000000476608                m68k_op_tst_32_di
                0x00000000004797b8                m68k_op_or_16_er_di
                0x00000000004b0e44                m68k_op_eor_8_di
                0x0000000000475cb4                m68k_op_move_8_ai_aw
                0x00000000004688dc                m68k_op_sub_8_re_pi7
                0x0000000000483638                m68k_op_move_32_al_i
                0x000000000047a4f8                m68k_op_bftst_32_aw
                0x000000000045dfac                m68k_op_bhi_32
                0x0000000000487cb4                m68k_op_sne_8_al
                0x000000000046baf8                m68k_op_eor_8_pi
                0x0000000000464dd4                m68k_op_eor_32_pd
                0x00000000004aa51c                m68k_op_addi_16_aw
                0x000000000048d880                m68k_op_move_32_pi_ix
                0x0000000000465c84                m68k_op_roxl_16_pi
                0x000000000048746c                m68k_op_addq_16_al
                0x000000000047a210                m68k_op_move_16_frc_pd
                0x0000000000468820                m68k_op_sub_8_re_pd
                0x0000000000479878                m68k_op_move_16_pd_di
                0x0000000000486c78                m68k_op_or_16_re_al
                0x000000000048daf0                m68k_op_and_8_er_ix
                0x000000000047a4d0                m68k_op_callm_32_ai
                0x0000000000479e90                m68k_op_unpk_16_mm
                0x0000000000479f30                m68k_op_trapmi_32
                0x00000000004b593c                m68k_op_move_8_ix_pcdi
                0x000000000048ac84                m68k_op_btst_8_r_pcix
                0x000000000047a2b0                m68k_op_cmpi_32_pcdi
                0x00000000004a9604                m68k_op_eor_16_di
                0x0000000000469760                m68k_op_seq_8_pd7
                0x000000000046ea20                m68k_op_and_32_er_ai
                0x00000000004acdac                m68k_op_slt_8_di
                0x00000000004b5b00                m68k_op_bgt_16
                0x000000000047a0d0                m68k_op_mull_32_i
                0x00000000004a0fcc                m68k_op_move_16_d_i
                0x000000000047a648                m68k_op_bfclr_32_aw
                0x000000000045cd00                m68k_op_addq_32_a
                0x0000000000477584                m68k_op_and_8_er_di
                0x000000000047fb08                m68k_op_move_32_ix_di
                0x00000000004a9460                m68k_op_eori_16_ai
                0x0000000000461b08                m68k_op_sub_32_er_d
                0x000000000047f92c                m68k_op_move_8_ix_pd
                0x00000000004b15fc                m68k_op_bset_8_s_pi
                0x00000000004aade8                m68k_op_move_8_ix_aw
                0x000000000048b7e4                m68k_op_suba_32_ix
                0x00000000004657ec                m68k_op_subq_16_pi
                0x0000000000479fc0                m68k_op_trapeq_16
                0x000000000046f9ec                m68k_op_btst_8_r_pd7
                0x000000000048b8b4                m68k_op_add_32_er_al
                0x000000000047c710                m68k_op_or_32_re_ix
                0x00000000004b9230                m68k_op_move_16_tos_ix
                0x00000000004ad3c4                m68k_op_seq_8_aw
                0x000000000045dc60                m68k_op_beq_8
                0x00000000004a77e8                m68k_op_movem_16_er_ix
                0x00000000004b5f14                m68k_op_move_8_pd_pcdi
                0x000000000046d500                m68k_op_rtr_32
                0x0000000000479f68                m68k_op_trapcc_32
                0x000000000047ee34                m68k_op_move_8_ix_di
                0x00000000004647b0                m68k_op_not_32_pd
                0x0000000000469c20                m68k_op_scc_8_pi
                0x00000000004a2900                m68k_op_btst_32_s_d
                0x0000000000474aa4                m68k_op_muls_16_pd
                0x000000000048ae98                m68k_op_cpdbcc_32
                0x000000000049c9f4                m68k_op_movem_32_re_di
                0x000000000046c9f4                m68k_op_and_8_re_pi
                0x000000000047a4a8                m68k_op_callm_32_pcdi
                0x00000000004a2dd8                m68k_op_andi_32_aw
                0x0000000000499b44                m68k_op_not_32_di
                0x00000000004732e0                m68k_op_cmp_8_pd
                0x00000000004691e0                m68k_op_smi_8_pd7
                0x0000000000482090                m68k_op_add_32_er_pcix
                0x000000000047184c                m68k_op_add_8_er_pi
                0x0000000000467b08                m68k_op_and_16_re_ai
                0x0000000000479ea0                m68k_op_unpk_16_mm_ay7
                0x000000000047a180                m68k_op_moves_16_pd
                0x0000000000468c2c                m68k_op_sle_8_pi
                0x000000000046dc60                m68k_op_or_8_er_ai
                0x000000000048e6d4                m68k_op_or_8_er_ix
                0x000000000046e0dc                m68k_op_move_8_pd7_ai
                0x000000000045f7ec                m68k_op_move_32_d_a
                0x0000000000469058                m68k_op_sge_8_pd7
                0x000000000047a3c8                m68k_op_chk_32_ai
                0x00000000004aa194                m68k_op_and_16_re_di
                0x00000000004ab3d0                m68k_op_btst_8_s_di
                0x000000000046a0e4                m68k_op_sf_8_pi
                0x000000000047a078                m68k_op_trapt_32
                0x0000000000468268                m68k_op_tas_8_pi
                0x000000000047db00                m68k_op_scc_8_ix
                0x000000000046aa00                m68k_op_negx_8_pd
                0x0000000000488d30                m68k_op_and_8_re_al
                0x0000000000476758                m68k_op_sub_32_er_di
                0x000000000048e17c                m68k_op_move_32_al_ix
                0x000000000047a440                m68k_op_cas_16_pd
                0x000000000046fbc8                m68k_op_subx_8_mm_axy7
                0x000000000048a390                m68k_op_reset
                0x000000000047a488                m68k_op_cas_8_pi7
                0x000000000046b980                m68k_op_eor_8_pd
                0x0000000000474610                m68k_op_cmp_16_pd
                0x00000000004b4588                m68k_op_bcs_16
                0x0000000000469a34                m68k_op_scs_8_pd
                0x000000000047a258                m68k_op_divl_32_pcix
                0x000000000045df40                m68k_op_ble_8
                0x000000000048d4d8                m68k_op_movea_16_al
                0x0000000000491404                m68k_op_move_16_toc_ix
                0x00000000004962fc                m68k_op_addi_8_pd
                0x00000000004a9f4c                m68k_op_andi_16_pi
                0x000000000045e818                m68k_op_cmp_16_a
                0x00000000004aa718                m68k_op_addi_16_di
                0x00000000004af52c                m68k_op_move_8_aw_pi7
                0x00000000004a19dc                m68k_op_eor_32_aw
                0x0000000000496a80                m68k_op_movem_32_er_pcix
                0x00000000004b0b10                m68k_op_eori_8_pi7
                0x000000000048639c                m68k_op_move_16_al_aw
                0x0000000000496564                m68k_op_addi_8_ai
                0x00000000004a9bb8                m68k_op_andi_16_aw
                0x000000000045ec9c                m68k_op_exg_32_dd
                0x000000000047e290                m68k_op_clr_8_ix
                0x000000000046921c                m68k_op_smi_8_pd
                0x00000000004a59e8                m68k_op_roxl_16_aw
                0x0000000000460ae8                m68k_op_roxr_16_r
                0x0000000000461498                m68k_op_scs_8_d
                0x0000000000478adc                m68k_op_move_16_ai_aw
                0x00000000004b0f34                m68k_op_clr_8_aw
                0x000000000047a208                m68k_op_move_16_frc_di
                0x00000000004b84e0                m68k_op_move_8_aw_aw
                0x000000000049ea78                m68k_op_movem_16_re_ai
                0x0000000000483cbc                m68k_op_move_32_d_i
                0x000000000049f83c                m68k_op_move_32_aw_ix
                0x00000000004b1774                m68k_op_bset_8_r_aw
                0x0000000000461508                m68k_op_sne_8_d
                0x00000000004ab9d4                m68k_op_cmpi_8_ai
                0x000000000048f4d0                m68k_op_chk_16_pcdi
                0x00000000004a1e50                m68k_op_divs_16_i
                0x00000000004a2318                m68k_op_cmp_16_i
                0x0000000000476ec4                m68k_op_cmpa_32_di
                0x0000000000462040                m68k_op_subx_32_rr
                0x000000000047a118                m68k_op_mull_32_ai
                0x0000000000479f08                m68k_op_tst_8_pcdi
                0x00000000004b4f5c                m68k_op_dbne_16
                0x0000000000484f94                m68k_op_and_32_er_i
                0x00000000004ad438                m68k_op_seq_8_di
                0x000000000047a0e0                m68k_op_mull_32_pcdi
                0x000000000045d75c                m68k_op_asl_8_r
                0x000000000046e4a4                m68k_op_or_32_er_ai
                0x000000000048bb20                m68k_op_cmpi_32_ix
                0x000000000047b5ec                m68k_op_subq_32_ix
                0x000000000047c64c                m68k_op_sgt_8_ix
                0x000000000049fedc                m68k_op_move_32_di_al
                0x00000000004b26ac                m68k_op_bchg_8_s_pi7
                0x00000000004760d4                m68k_op_suba_32_aw
                0x0000000000469e40                m68k_op_sls_8_ai
                0x0000000000482f24                m68k_op_ori_32_pi
                0x00000000004b832c                m68k_op_move_8_d_aw
                0x000000000046e968                m68k_op_cmp_32_ai
                0x000000000047a418                m68k_op_cas_32_ai
                0x0000000000488c80                m68k_op_bchg_8_r_al
                0x0000000000462218                m68ki_build_opcode_table
                0x00000000004690f4                m68k_op_sge_8_pi7
                0x000000000047633c                m68k_op_and_32_er_aw
                0x0000000000466478                m68k_op_ror_16_ai
                0x0000000000474280                m68k_op_subx_16_mm
                0x00000000004b5188                m68k_op_dbcc_16
                0x00000000004750c8                m68k_op_sub_16_er_pi
                0x000000000048d408                m68k_op_cmpa_16_al
                0x00000000004719ec                m68k_op_tst_32_pd
                0x000000000046e2e0                m68k_op_tst_32_ai
                0x0000000000490eb4                m68k_op_move_16_pi_pcix
                0x000000000048e000                m68k_op_muls_16_al
                0x0000000000478d00                m68k_op_cmp_16_aw
                0x0000000000469458                m68k_op_spl_8_ai
                0x000000000047a1a0                m68k_op_moves_8_aw
                0x000000000046456c                m68k_op_or_32_re_pd
                0x000000000045d00c                m68k_op_asr_8_s
                0x0000000000486780                m68k_op_subq_16_al
                0x0000000000479ec0                m68k_op_tst_32_pcix
                0x00000000004816fc                m68k_op_rte_32
                0x00000000004832bc                m68k_op_not_32_al
                0x00000000004b6234                m68k_op_add_32_er_pcdi
                0x0000000000480364                m68k_op_smi_8_ix
                0x00000000004a119c                m68k_op_link_16_a7
                0x000000000045f104                m68k_op_lsr_16_r
                0x00000000004698e4                m68k_op_sne_8_pd
                0x0000000000489ab0                m68k_op_move_8_ai_al
                0x000000000045fba8                m68k_op_neg_8_d
                0x000000000047a660                m68k_op_bfclr_32_ai
                0x000000000047a678                m68k_op_bfchg_32_aw
                0x000000000045ffdc                m68k_op_or_32_er_d
                0x000000000046b428                m68k_op_nbcd_8_ai
                0x00000000004a2570                m68k_op_clr_16_aw
                0x000000000048e474                m68k_op_move_16_pd_al
                0x00000000004a5674                m68k_op_subi_16_pi
                0x0000000000463374                m68k_op_move_32_pi_d
                0x0000000000488224                m68k_op_neg_8_al
                0x0000000000477aa0                m68k_op_or_16_er_pcdi
                0x000000000046909c                m68k_op_sge_8_pd
                0x0000000000489254                m68k_op_move_8_pd7_pcix
                0x000000000048993c                m68k_op_move_8_al_pcix
                0x000000000048e980                m68k_op_move_8_pd_ix
                0x00000000004b228c                m68k_op_bchg_8_s_aw
                0x0000000000471cf0                m68k_op_move_32_pd_pd
                0x000000000047a2a8                m68k_op_cmpi_32_pcix
                0x00000000004ab68c                m68k_op_btst_8_s_pd
                0x0000000000463b00                m68k_op_move_16_pd_d
                0x000000000046f0e8                m68k_op_adda_16_ai
                0x0000000000485e58                m68k_op_addi_32_ix
                0x000000000049b444                m68k_op_movem_32_er_ai
                0x0000000000470984                m68k_op_tst_8_pi7
                0x000000000047a130                m68k_op_moves_32_aw
                0x00000000004b068c                m68k_op_eori_8_aw
                0x0000000000494d24                m68k_op_divu_16_d
                0x00000000004aab84                m68k_op_add_16_re_di
                0x0000000000465fcc                m68k_op_roxr_16_ai
                0x00000000004612cc                m68k_op_st_8_d
                0x000000000046c634                m68k_op_bchg_8_r_pi7
                0x000000000046c3a8                m68k_op_bclr_8_r_pi
                0x00000000004aa0d4                m68k_op_and_16_re_aw
                0x0000000000489b70                m68k_op_and_8_er_pcix
                0x0000000000480cd4                m68k_op_move_32_ix_pcix
                0x00000000004600c8                m68k_op_ror_16_s
                0x00000000004adbb8                m68k_op_st_8_aw
                0x00000000004b2b2c                m68k_op_andi_8_aw
                0x0000000000485868                m68k_op_cmpi_32_aw
                0x00000000004836ec                m68k_op_move_32_al_pd
                0x000000000047da1c                m68k_op_jsr_32_ix
                0x0000000000469408                m68k_op_spl_8_pi
                0x0000000000488bcc                m68k_op_bclr_8_r_al
                0x000000000047a2e8                m68k_op_chk2cmp2_32_ix
                0x0000000000477700                m68k_op_cmp_32_di
                0x0000000000486ad8                m68k_op_rol_16_al
                0x000000000047a280                m68k_op_divl_32_di
                0x00000000004601e0                m68k_op_ror_8_r
                0x00000000004a213c                m68k_op_cmpi_16_d
                0x0000000000479fd0                m68k_op_trapcs_16
                0x0000000000495b94                m68k_op_and_16_er_ix
                0x00000000004a2eac                m68k_op_andi_32_di
                0x00000000004a6a0c                m68k_op_not_16_di
                0x00000000004679a8                m68k_op_and_16_re_pd
                0x0000000000484cb4                m68k_op_andi_32_pi
                0x0000000000475e98                m68k_op_sub_32_er_aw
                0x0000000000477060                m68k_op_move_32_pi_di
                0x000000000046e820                m68k_op_move_32_d_ai
                0x00000000004650c8                m68k_op_and_32_re_pi
                0x0000000000486e04                m68k_op_negx_16_al
                0x000000000046f518                m68k_op_move_16_pi_ai
                0x000000000047669c                m68k_op_move_8_pd7_di
                0x000000000047a140                m68k_op_moves_32_di
                0x00000000004a6784                m68k_op_or_16_re_aw
                0x0000000000479fa8                m68k_op_trappl_16
                0x000000000046bce0                m68k_op_clr_8_pd
                0x000000000047699c                m68k_op_move_8_pi7_di
                0x000000000047a3b8                m68k_op_chk_32_pd
                0x0000000000483a80                m68k_op_move_32_pd_i
                0x0000000000473c84                m68k_op_move_8_pi7_pd
                0x000000000046a33c                m68k_op_or_8_re_pd
                0x000000000048dbe4                m68k_op_040fpu1_32
                0x00000000004aeec4                m68k_op_movep_16_re
                0x000000000047a1f8                m68k_op_move_16_frc_aw
                0x000000000047a328                m68k_op_chk2cmp2_16_di
                0x00000000004a96f8                m68k_op_asl_16_aw
                0x0000000000468f6c                m68k_op_slt_8_pi7
                0x00000000004ac56c                m68k_op_subi_8_pd
                0x00000000004917a8                m68k_op_move_16_ix_ix
                0x000000000048d358                m68k_op_mulu_16_al
                0x00000000004a446c                m68k_op_cmpi_16_ix
                0x0000000000461730                m68k_op_smi_8_d
                0x000000000048428c                m68k_op_eori_32_ai
                0x0000000000480df0                m68k_op_move_32_pd_pcix
                0x0000000000469b58                m68k_op_scc_8_pd7
                0x0000000000478d9c                m68k_op_add_16_er_al
                0x00000000004aa344                m68k_op_addq_16_di
                0x0000000000460754                m68k_op_rol_32_r
                0x00000000004ac8a0                m68k_op_sub_8_re_aw
                0x000000000046e8a8                m68k_op_cmpa_32_ai
                0x0000000000460940                m68k_op_roxr_32_s
                0x0000000000483438                m68k_op_neg_32_al
                0x0000000000474540                m68k_op_cmpa_16_pd
                0x00000000004b2df8                m68k_op_andi_8_pd7
                0x000000000046d498                m68k_op_move_16_toc_d
                0x00000000004ab12c                m68k_op_btst_8_s_ix
                0x0000000000484ed8                m68k_op_and_32_re_al
                0x000000000045cefc                m68k_op_and_8_er_d
                0x00000000004792e0                m68k_op_adda_16_di
                0x000000000047a100                m68k_op_mull_32_di
                0x00000000004ab5d0                m68k_op_cmpi_8_pd
                0x0000000000488168                m68k_op_negx_8_al
                0x000000000046cf74                m68k_op_add_8_re_pd
                0x0000000000480134                m68k_op_tas_8_ix
                0x00000000004638d4                m68k_op_move_32_pd_a
                0x0000000000499ff8                m68k_op_muls_16_i
                0x00000000004621dc                m68k_op_tst_32_d
                0x0000000000469be4                m68k_op_scc_8_pi7
                0x0000000000463b9c                m68k_op_move_16_pi_a
                0x0000000000482b5c                m68k_op_sub_32_re_al
                0x00000000004761e4                m68k_op_move_32_pi_aw
                0x000000000045fdb0                m68k_op_negx_32_d
                0x0000000000467bb0                m68k_op_addq_16_pd
                0x00000000004af040                m68k_op_move_8_aw_i
                0x000000000045e698                m68k_op_clr_8_d
                0x00000000004a24c4                m68k_op_clr_32_di
                0x00000000004ab038                m68k_op_cmpi_8_ix
                0x00000000004a3c80                m68k_op_add_8_er_i
                0x00000000004a03fc                m68k_op_move_32_di_pi
                0x00000000004a34c4                m68k_op_addq_32_di
                0x00000000004b3410                m68k_op_btst_8_s_pcdi
                0x00000000004a8e08                m68k_op_lsr_16_di
                0x00000000004b2d00                m68k_op_andi_8_di
                0x0000000000468558                m68k_op_subq_8_pi7
                0x000000000048c8f0                m68k_op_sub_16_er_al
                0x00000000004ab214                m68k_op_move_8_pd_di
                0x0000000000479bb4                m68k_op_move_16_ai_di
                0x0000000000479234                m68k_op_movea_16_di
                0x000000000047a350                m68k_op_chk2cmp2_8_aw
                0x00000000004b6538                m68k_op_move_32_ix_pcdi
                0x000000000047a2f8                m68k_op_chk2cmp2_32_ai
                0x000000000049bccc                m68k_op_movem_32_re_al
                0x00000000004a4f28                m68k_op_cmpi_16_ai
                0x00000000004af9e0                m68k_op_move_8_di_al
                0x0000000000476528                m68k_op_sub_8_er_di
                0x000000000047a170                m68k_op_moves_16_ix
                0x0000000000460358                m68k_op_ror_32_r
                0x0000000000480c0c                m68k_op_or_32_er_pcix
                0x0000000000469340                m68k_op_spl_8_pd7
                0x000000000046d198                m68k_op_add_8_re_ai
                0x00000000004ab7dc                m68k_op_btst_8_s_pi7
                0x0000000000492740                m68k_op_divu_16_pd
                0x0000000000463e80                m68k_op_clr_16_pi
                0x000000000045c700                m68k_op_abcd_8_rr
                0x0000000000469b10                m68k_op_scs_8_ai
                0x000000000048d71c                m68k_op_tst_8_ix
                0x000000000047a2c8                m68k_op_cmpi_8_pcix
                0x00000000004713a0                m68k_op_sub_8_er_pi
                0x000000000048c5f4                m68k_op_040fpu0_32
                0x000000000046f960                m68k_op_cmp_8_pd7
                0x000000000047411c                m68k_op_adda_16_pd
                0x000000000047e098                m68k_op_add_8_re_ix
                0x0000000000473060                m68k_op_tst_8_pd
                0x0000000000497740                m68k_op_move_16_aw_pcdi
                0x00000000004af5e4                m68k_op_move_8_aw_pi
                0x00000000004b381c                m68k_op_move_16_tos_i
                0x000000000046e540                m68k_op_movea_32_ai
                0x0000000000494fb8                m68k_op_chk_16_ix
                0x000000000046b0ac                m68k_op_nbcd_8_pd
                0x000000000046067c                m68k_op_rol_16_r
                0x0000000000483f90                m68k_op_jmp_32_al
                0x0000000000460d88                m68k_op_roxl_16_s
                0x00000000004af818                m68k_op_move_8_ix_i
                0x0000000000499c18                m68k_op_negx_32_aw
                0x000000000047d36c                m68k_op_nbcd_8_ix
                0x0000000000475198                m68k_op_or_16_er_pi
                0x000000000049afc4                m68k_op_movem_32_er_di
                0x0000000000479f80                m68k_op_traple_16
                0x00000000004a0f20                m68k_op_move_16_ai_i
                0x000000000047ed8c                m68k_op_scs_8_ix
                0x00000000004621a0                m68k_op_tst_16_d
                0x00000000004ad544                m68k_op_sne_8_di
                0x0000000000468988                m68k_op_sub_8_re_pi
                0x000000000047a518                m68k_op_bftst_32_d
                0x00000000004695b8                m68k_op_svs_8_ai
                0x00000000004aad34                m68k_op_btst_8_s_al
                0x000000000047a060                m68k_op_trapf_32
                0x0000000000479f88                m68k_op_trapgt_16
                0x00000000004a1ab0                m68k_op_eor_32_di
                0x000000000047b940                m68k_op_ror_16_ix
                0x000000000046e020                m68k_op_move_8_pd_ai
                0x00000000004668e8                m68k_op_not_16_ai
                0x00000000004a58f8                m68k_op_sub_16_re_di
                0x000000000048393c                m68k_op_move_32_al_a
                0x000000000046a8bc                m68k_op_not_8_ai
                0x00000000004782b8                m68k_op_cmp_16_pcdi
                0x00000000004840e4                m68k_op_eori_32_pd
                0x0000000000468bcc                m68k_op_sle_8_pi7
                0x000000000048d574                m68k_op_cmpa_32_ix
                0x0000000000464be4                m68k_op_neg_32_pd
                0x00000000004a66b4                m68k_op_ori_16_ai
                0x00000000004897c4                m68k_op_or_8_er_pcix
                0x0000000000468e10                m68k_op_sgt_8_pi
                0x000000000049fca4                m68k_op_move_32_aw_a
                0x00000000004a4e34                m68k_op_move_16_di_ai
                0x00000000004653b8                m68k_op_addq_32_ai
                0x00000000004730d8                m68k_op_sub_8_er_pd
                0x0000000000463cd8                m68k_op_move_16_ai_a
                0x0000000000486ecc                m68k_op_neg_16_al
                0x00000000004b11fc                m68k_op_bset_8_s_ix
                0x000000000047a340                m68k_op_chk2cmp2_16_pcdi
                0x000000000048aa08                m68k_op_sub_32_er_al
                0x000000000047a560                m68k_op_bfins_32_ix
                0x0000000000462168                m68k_op_tst_8_d
                0x000000000047b3e4                m68k_op_cpscc_32
                0x00000000004add98                m68k_op_ori_8_aw
                0x000000000045ea78                m68k_op_cmpa_32_d
                0x00000000004b63d4                m68k_op_cmp_32_pcdi
                0x0000000000499ce4                m68k_op_negx_32_di
                0x00000000004914ec                m68k_op_suba_16_ix
                0x0000000000471ea8                m68k_op_move_32_ai_pd
                0x000000000045cc8c                m68k_op_addq_32_d
                0x0000000000461330                m68k_op_shi_8_d
                0x0000000000463764                m68k_op_move_16_frs_pi
                0x00000000004b3e70                m68k_op_suba_32_pcdi
                0x000000000047a698                m68k_op_bfchg_32_d
                0x00000000004a18ac                m68k_op_eori_16_d
                0x000000000047c810                m68k_op_move_16_ix_pcdi
                0x0000000000467168                m68k_op_lsr_16_ai
                0x0000000000466a50                m68k_op_negx_16_pi
                0x00000000004b34c4                m68k_op_ble_16
                0x000000000047a568                m68k_op_bfins_32_di
                0x000000000046a578                m68k_op_or_8_re_ai
                0x0000000000479394                m68k_op_sub_16_er_di
                0x0000000000498cbc                m68k_op_lea_32_pcdi
                0x00000000004a3fd4                m68k_op_move_16_aw_aw
                0x0000000000484818                m68k_op_cmpi_32_d
                0x000000000047a308                m68k_op_chk2cmp2_32_pcdi
                0x000000000047ec30                m68k_op_svc_8_ix
                0x0000000000479e98                m68k_op_unpk_16_mm_axy7
                0x00000000004ac640                m68k_op_subi_8_pi7
                0x00000000004ace50                m68k_op_sge_8_aw
                0x000000000045dc0c                m68k_op_bne_8
                0x000000000048d7d0                m68k_op_or_16_er_al
                0x00000000004872e0                m68k_op_asr_16_al
                0x000000000047a3f8                m68k_op_cas_32_ix
                0x0000000000487108                m68k_op_eor_16_al
                0x000000000049f3d0                m68k_op_move_16_frs_di
                0x000000000045f5b8                m68k_op_lsl_32_r
                0x00000000004a5750                m68k_op_subi_16_ai
                0x00000000004889cc                m68k_op_eor_8_al
                0x0000000000470e14                m68k_op_add_8_er_pi7
                0x00000000004a2fa4                m68k_op_andi_16_d
                0x000000000045ed6c                m68k_op_ext_16
                0x00000000004b1130                m68k_op_bset_8_s_aw
                0x0000000000469f48                m68k_op_shi_8_pi7
                0x000000000049ffd8                m68k_op_move_32_di_aw
                0x000000000048786c                m68k_op_sle_8_al
                0x000000000049f5e8                m68k_op_move_32_aw_i
                0x00000000004b2a5c                m68k_op_andi_8_al
                0x00000000004b649c                m68k_op_adda_32_pcdi
                0x00000000004649ac                m68k_op_negx_32_pd
                0x00000000004698ac                m68k_op_sne_8_pd7
                0x000000000047126c                m68k_op_move_8_ai_pi
                0x00000000004a17a8                m68k_op_eori_32_di
                0x000000000047a068                m68k_op_trapf_16
                0x00000000004686c0                m68k_op_subq_8_ai
                0x00000000004916a8                m68k_op_move_16_al_ix
                0x000000000047f4ac                m68k_op_move_16_ix_ai
                0x000000000045f9f8                m68k_op_moveq_32
                0x0000000000463634                m68k_op_clr_32_ai
                0x00000000004ab870                m68k_op_cmpi_8_pi
                0x000000000046353c                m68k_op_clr_32_pd
                0x00000000004a5ac8                m68k_op_roxl_16_di
                0x000000000046e768                m68k_op_move_32_ai_ai
                0x000000000049f778                m68k_op_move_32_aw_aw
                0x0000000000472e10                m68k_op_adda_32_pi
                0x00000000004a8b84                m68k_op_lsl_16_aw
                0x0000000000479fb8                m68k_op_trapvc_16
                0x0000000000471de0                m68k_op_move_32_pi_pd
                0x000000000048eb48                m68k_op_mulu_16_pcix
                0x0000000000483e7c                m68k_op_lea_32_al
                0x000000000047a508                m68k_op_bftst_32_di
                0x0000000000477a10                m68k_op_suba_16_pcdi
                0x00000000004893cc                m68k_op_sub_8_er_pcix
                0x000000000047a248                m68k_op_extb_32
                0x0000000000485f80                m68k_op_move_32_al_di
                0x00000000004856e8                m68k_op_add_32_er_i
                0x000000000047a238                m68k_op_link_32_a7
                0x00000000004afdf0                m68k_op_move_8_di_pd
                0x000000000047a460                m68k_op_cas_8_aw
                0x00000000004894b8                m68k_op_move_32_ix_al
                0x00000000004b3fc0                m68k_op_blt_16
                0x0000000000469c70                m68k_op_scc_8_ai
                0x00000000004ac3a8                m68k_op_subi_8_di
                0x000000000047a588                m68k_op_bfffo_32_pcdi
                0x00000000004699b4                m68k_op_sne_8_ai
                0x00000000004b2f74                m68k_op_andi_8_pi7
                0x000000000045e974                m68k_op_cmpa_16_d
                0x0000000000476bb4                m68k_op_move_8_pi_di
                0x0000000000467d38                m68k_op_addq_16_ai
                0x00000000004747f0                m68k_op_suba_16_pd
                0x000000000045f6e4                m68k_op_move_16_d_d
                0x00000000004b5cc4                m68k_op_dbls_16
                0x00000000004ac29c                m68k_op_subi_8_ix
                0x0000000000464e98                m68k_op_eor_32_pi
                0x000000000047a2b8                m68k_op_cmpi_16_pcix
                0x00000000004696c8                m68k_op_svc_8_pi
                0x0000000000472ca8                m68k_op_cmp_32_pi
                0x00000000004af900                m68k_op_move_8_di_i
                0x0000000000484b1c                m68k_op_andi_32_al
                0x0000000000478014                m68k_op_add_16_er_pcdi
                0x000000000047a0e8                m68k_op_mull_32_al
                0x0000000000488b1c                m68k_op_bset_8_r_al
                0x0000000000497800                m68k_op_move_16_di_pcdi
                0x0000000000484a9c                m68k_op_clr_16_al
                0x0000000000499798                m68k_op_or_32_re_aw
                0x000000000046b2f8                m68k_op_nbcd_8_pi
                0x000000000049e188                m68k_op_movem_16_re_ix
                0x0000000000482ff8                m68k_op_ori_32_ai
                0x0000000000465d58                m68k_op_roxl_16_ai
                0x000000000048f160                m68k_op_add_16_er_pcix
                0x000000000045f424                m68k_op_lsl_8_r
                0x00000000004a0db8                m68k_op_move_16_pd_i
                0x0000000000488874                m68k_op_move_8_al_ai
                0x000000000047cf9c                m68k_op_move_8_ix_pi7
                0x00000000004b4b00                m68k_op_dbpl_16
                0x00000000004a7304                m68k_op_movem_16_er_aw
                0x00000000004749fc                m68k_op_mulu_16_pd
                0x0000000000461f20                m68k_op_subx_8_rr
                0x0000000000464090                m68k_op_subq_32_pd
                0x000000000047a028                m68k_op_trapvc
                0x000000000047ea38                m68k_op_roxr_16_ix
                0x00000000004666c8                m68k_op_or_16_re_ai
                0x00000000004abc6c                m68k_op_movep_16_er
                0x0000000000469b94                m68k_op_scc_8_pd
                0x0000000000479954                m68k_op_muls_16_di
                0x00000000004738f8                m68k_op_sbcd_8_mm_ax7
                0x000000000045c9ac                m68k_op_add_32_er_a
                0x00000000004aea48                m68k_op_neg_8_di
                0x0000000000482c40                m68k_op_sub_32_er_i
                0x000000000047a188                m68k_op_moves_16_pi
                0x00000000004b7f1c                m68k_op_sub_8_er_aw
                0x00000000004a5378                m68k_op_subi_16_ix
                0x000000000049937c                m68k_op_ori_16_toc
                0x00000000004b46f8                m68k_op_move_8_pi7_pcdi
                0x000000000046f844                m68k_op_or_8_er_pd7
                0x000000000045e178                m68k_op_beq_32
                0x00000000004877a4                m68k_op_sub_8_re_al
                0x000000000047238c                m68k_op_subx_32_mm
                0x000000000048c428                m68k_op_movea_32_ix
                0x0000000000498518                m68k_op_add_8_er_pcdi
                0x000000000047a4f0                m68k_op_bftst_32_al
                0x0000000000473a50                m68k_op_move_8_pd_pd
                0x000000000046eb48                m68k_op_add_32_er_ai
                0x00000000004b4140                m68k_op_bmi_16
                0x00000000004699f8                m68k_op_scs_8_pd7
                0x000000000048e540                m68k_op_and_32_er_ix
                0x000000000047a4e8                m68k_op_bftst_32_pcdi
                0x0000000000490c54                m68k_op_move_16_al_pcix
                0x000000000046bf48                m68k_op_bset_8_r_pd
                0x00000000004b54f8                m68k_op_cmpa_32_pcdi
                0x00000000004843ec                m68k_op_eor_32_al
                0x000000000046ab54                m68k_op_negx_8_pi
                0x000000000047a3c0                m68k_op_chk_32_pi
                0x0000000000484974                m68k_op_cmp_32_i
                0x000000000047a088                m68k_op_trapt
                0x000000000047a240                m68k_op_illegal
                0x0000000000460898                m68k_op_roxr_16_s
                0x00000000004a90a8                m68k_op_eori_16_ix
                0x000000000049844c                m68k_op_btst_8_s_pcix
                0x0000000000482938                m68k_op_subi_32_ai
                0x000000000047a448                m68k_op_cas_16_pi
                0x000000000046c8ac                m68k_op_and_8_re_pd
                0x000000000048e884                m68k_op_move_8_al_ix
                0x00000000004a36bc                m68k_op_addi_32_di
                0x00000000004adabc                m68k_op_sf_8_aw
                0x00000000004abff4                m68k_op_subq_8_di
                0x00000000004708dc                m68k_op_move_8_ai_pi7
                0x00000000004b1490                m68k_op_bset_8_s_pd
                0x00000000004734c8                m68k_op_add_8_er_pd
                0x00000000004a5f64                m68k_op_ror_16_aw
                0x000000000045f7a0                m68k_op_move_32_d_d
                0x00000000004722b8                m68k_op_add_32_er_pd
                0x000000000047a260                m68k_op_divl_32_pcdi
                0x000000000047a5e8                m68k_op_bfextu_32_di
                0x000000000046f23c                m68k_op_cmpa_16_ai
                0x000000000046a194                m68k_op_st_8_pd
                0x000000000046d24c                m68k_op_abcd_8_mm_ay7
                0x000000000046a1d8                m68k_op_st_8_pi7
                0x000000000048ad38                m68k_op_move_32_pi_al
                0x000000000047a3d0                m68k_op_chk_32_d
                0x0000000000479eb0                m68k_op_unpk_16_rr
                0x000000000046c958                m68k_op_and_8_re_pi7
                0x00000000004b0ca4                m68k_op_eori_8_ai
                0x000000000045e9f4                m68k_op_cmpa_16_a
                0x00000000004a6e24                m68k_op_movem_16_er_al
                0x00000000004a29fc                m68k_op_bsr_16
                0x000000000045e7b4                m68k_op_cmp_16_d
                0x0000000000496490                m68k_op_addi_8_pi
                0x00000000004b12f4                m68k_op_bset_8_s_di
                0x00000000004a5da0                m68k_op_rol_16_aw
                0x00000000004785ec                m68k_op_suba_16_aw
                0x000000000047a490                m68k_op_cas_8_pi
                0x000000000048a674                m68k_op_move_32_tou
                0x0000000000475398                m68k_op_move_16_toc_pi
                0x00000000004a4234                m68k_op_move_16_aw_ix
                0x0000000000468b58                m68k_op_sle_8_pd
                0x0000000000479fb0                m68k_op_trapvs_16
                0x00000000004610d0                m68k_op_roxl_32_r
                0x000000000048cbc8                m68k_op_tst_16_al
                0x000000000047064c                m68k_op_move_8_pd_pi7
                0x00000000004680ec                m68k_op_tas_8_pd
                0x00000000004b42b0                m68k_op_bvs_16
                0x00000000004abb28                m68k_op_movep_32_er
                0x00000000004814b0                m68k_op_move_16_tos_ai
                0x0000000000477b44                m68k_op_adda_16_pcdi
                0x000000000045e458                m68k_op_ble_32
                0x00000000004a13f0                m68k_op_jsr_32_di
                0x000000000047a3a8                m68k_op_chk_32_ix
                0x000000000046deb0                m68k_op_and_8_er_ai
                0x000000000046981c                m68k_op_seq_8_pi
                0x00000000004abe38                m68k_op_tas_8_di
                0x00000000004b3590                m68k_op_bls_16
                0x0000000000491af0                m68k_op_cmpa_16_ix
                0x00000000004a685c                m68k_op_or_16_re_di
                0x00000000004ac7d4                m68k_op_subi_8_ai
                0x000000000049d8dc                m68k_op_movem_16_re_al
                0x00000000004b1900                m68k_op_bclr_8_s_al
                0x000000000046f064                m68k_op_movea_16_ai
                0x000000000048ba74                m68k_op_or_32_er_al
                0x00000000004b5de8                m68k_op_dble_16
                0x00000000004adb28                m68k_op_sf_8_di
                0x00000000004ad2b0                m68k_op_svc_8_aw
                0x000000000046b66c                m68k_op_move_8_pi_d
                0x000000000046fb10                m68k_op_add_8_er_pd7
                0x000000000047a020                m68k_op_trapvs
                0x000000000047a218                m68k_op_move_16_frc_pi
                0x00000000004aac74                m68k_op_cmpi_8_al
                0x00000000004986d4                m68k_op_subq_32_aw
                0x00000000004b21c4                m68k_op_bchg_8_s_al
                0x0000000000465018                m68k_op_and_32_re_pd
                0x0000000000463820                m68k_op_move_16_frs_ai
                0x00000000004a153c                m68k_op_jmp_32_di
                0x00000000004b3344                m68k_op_addq_8_aw
                0x000000000047a550                m68k_op_bfins_32_al
                0x0000000000491cdc                m68k_op_adda_16_ix
                0x0000000000469d7c                m68k_op_sls_8_pi7
                0x000000000047a5d0                m68k_op_bfextu_32_al
                0x0000000000468dc0                m68k_op_sgt_8_pi7
                0x000000000049f4d8                m68k_op_move_16_toc_i
                0x000000000046a040                m68k_op_sf_8_pd7
                0x000000000048ec14                m68k_op_adda_16_pcix
                0x000000000047a058                m68k_op_traphi
                0x00000000004724b0                m68k_op_addx_32_mm
                0x000000000047a6a0                m68k_op_divs_16_d
                0x000000000048abc4                m68k_op_cmp_32_al
                0x00000000004615e0                m68k_op_svc_8_d
                0x000000000045fcc0                m68k_op_negx_8_d
                0x000000000048e0b8                m68k_op_move_16_ai_al
                0x00000000004b6b30                m68k_op_move_8_pd_aw
                0x0000000000470bbc                m68k_op_cmpm_8_axy7
                0x0000000000487af8                m68k_op_spl_8_al
                0x00000000004871dc                m68k_op_asl_16_al
                0x000000000046aefc                m68k_op_neg_8_ai
                0x000000000046c770                m68k_op_bchg_8_r_ai
                0x000000000046bd5c                m68k_op_clr_8_pi7
                0x00000000004725d4                m68k_op_tst_32_pi
                0x0000000000469138                m68k_op_sge_8_pi
                0x000000000046e23c                m68k_op_move_8_pi7_ai
                0x000000000045cdd0                m68k_op_addx_16_rr
                0x000000000048ae04                m68k_op_btst_8_r_al
                0x000000000046fd94                m68k_op_sbcd_8_mm_axy7
                0x00000000004a04f8                m68k_op_move_32_di_ai
                0x00000000004b326c                m68k_op_and_8_re_di
                0x00000000004709e8                m68k_op_sub_8_er_pi7
                0x000000000047886c                m68k_op_move_16_d_aw
                0x000000000046b5e8                m68k_op_move_8_pd7_d
                0x0000000000480fac                m68k_op_cpgen_32
                0x00000000004b2540                m68k_op_bchg_8_s_pd7
                0x00000000004a9ae8                m68k_op_andi_16_al
                0x000000000048bce4                m68k_op_move_8_d_ix
                0x000000000046b788                m68k_op_move_8_ai_ai
                0x000000000045de14                m68k_op_bge_8
                0x0000000000479eb8                m68k_op_tst_32_i
                0x00000000004acd2c                m68k_op_slt_8_aw
                0x000000000047a4c8                m68k_op_callm_32_di
                0x000000000047d944                m68k_op_move_8_ai_pcix
                0x0000000000468e74                m68k_op_sgt_8_ai
                0x0000000000472854                m68k_op_movea_32_pi
                0x00000000004853e0                m68k_op_addi_32_ai
                0x0000000000499668                m68k_op_ori_16_d
                0x00000000004882c8                m68k_op_nbcd_8_al
                0x00000000004731a0                m68k_op_or_8_er_pd
                0x0000000000466b10                m68k_op_negx_16_ai
                0x0000000000489a1c                m68k_op_move_32_d_al
                0x000000000047a198                m68k_op_moves_8_al
                0x0000000000475f64                m68k_op_move_32_pd_aw
                0x0000000000482d04                m68k_op_pea_32_al
                0x000000000049e604                m68k_op_movem_16_re_di
                0x0000000000474ed8                m68k_op_cmpm_16
                0x0000000000499a8c                m68k_op_not_32_aw
                0x00000000004b807c                m68k_op_add_8_er_aw
                0x000000000048cc48                m68k_op_move_32_ai_ix
                0x00000000004b60c0                m68k_op_cmp_8_pcdi
                0x000000000046952c                m68k_op_svs_8_pi7
                0x000000000045dbb4                m68k_op_bcs_8
                0x0000000000466c6c                m68k_op_neg_16_pi
                0x000000000047a3e0                m68k_op_cas2_16
                0x000000000046efc4                m68k_op_move_16_toc_ai
                0x0000000000482e50                m68k_op_ori_32_pd
                0x00000000004a39d4                m68k_op_add_32_re_aw
                0x00000000004b97cc                m68k_op_move_16_tos_di
                0x000000000048c21c                m68k_op_adda_32_ix
                0x00000000004a3898                m68k_op_addi_8_d
                0x00000000004b31b0                m68k_op_and_8_re_aw
                0x0000000000478c44                m68k_op_move_16_pd_aw
                0x0000000000461d34                m68k_op_subq_8_d
                0x000000000048a8a8                m68k_op_cmp_8_pcix
                0x000000000046937c                m68k_op_spl_8_pd
                0x000000000047d6b4                m68k_op_sub_16_re_ix
                0x000000000048241c                m68k_op_adda_32_pcix
                0x00000000004a00c4                m68k_op_move_32_di_ix
                0x000000000048cd40                m68k_op_move_16_pi_al
                0x0000000000475d64                m68k_op_movea_32_aw
                0x00000000004b0278                m68k_op_move_8_pd_i
                0x00000000004b1e00                m68k_op_bclr_8_s_pi7
                0x000000000047a348                m68k_op_chk2cmp2_8_al
                0x00000000004a50b8                m68k_op_subq_16_di
                0x00000000004663b0                m68k_op_ror_16_pi
                0x000000000046968c                m68k_op_svc_8_pi7
                0x0000000000468038                m68k_op_tas_8_pd7
                0x00000000004837b4                m68k_op_move_32_al_pi
                0x000000000045d1f0                m68k_op_asr_8_r
                0x000000000047d5d4                m68k_op_cmp_32_pcix
                0x000000000046c454                m68k_op_bclr_8_r_ai
                0x0000000000472b50                m68k_op_move_32_d_pi
                0x000000000047a228                m68k_op_move_16_frc_d
                0x0000000000486f78                m68k_op_lsl_16_al
                0x00000000004673ac                m68k_op_eor_16_ai
                0x000000000047a520                m68k_op_bfset_32_al
                0x000000000046ed14                m68k_op_sub_16_er_ai
                0x000000000045c7bc                m68k_op_add_8_er_d
                0x0000000000468330                m68k_op_tas_8_ai
                0x000000000047a5f0                m68k_op_bfextu_32_ai
                0x000000000047a320                m68k_op_chk2cmp2_16_ix
                0x00000000004632d4                m68k_op_move_32_pi_a
                0x0000000000460030                m68k_op_ror_8_s
                0x000000000049fa3c                m68k_op_move_32_aw_pd
                0x0000000000466838                m68k_op_not_16_pi
                0x000000000047a5a0                m68k_op_bfffo_32_ix
                0x000000000045e720                m68k_op_clr_32_d
                0x000000000047a128                m68k_op_moves_32_al
                0x000000000047a5c0                m68k_op_bfextu_32_pcix
                0x000000000045e8f8                m68k_op_cmp_32_a
                0x0000000000479fa0                m68k_op_trapmi_16
                0x0000000000487e9c                m68k_op_shi_8_al
                0x00000000004a083c                m68k_op_move_16_aw_i
                0x00000000004692f8                m68k_op_smi_8_ai
                0x00000000004992e4                m68k_op_pea_32_di
                0x00000000004956a4                m68k_op_move_16_pd_ix
                0x0000000000467a58                m68k_op_and_16_re_pi
                0x00000000004757bc                m68k_op_cmpa_16_pi
                0x0000000000479ed8                m68k_op_tst_16_i
                0x000000000045fa3c                m68k_op_muls_16_d
                0x00000000004b48c8                m68k_op_dbge_16
                0x000000000047a1f0                m68k_op_move_16_frc_al
                0x0000000000460be4                m68k_op_roxr_32_r
                0x0000000000491168                m68k_op_tst_16_ix
                0x0000000000487a10                m68k_op_sge_8_al
                0x00000000004a2cf0                m68k_op_andi_16_toc
                0x00000000004a6208                m68k_op_ori_16_aw
                0x000000000045fe20                m68k_op_nop
                0x0000000000460534                m68k_op_rol_32_s
                0x00000000004a2b40                m68k_op_bra_16
                0x0000000000479ed0                m68k_op_tst_32_a
                0x0000000000479f48                m68k_op_trapvc_32
                0x000000000048f404                m68k_op_cmp_16_pcix
                0x0000000000460fd4                m68k_op_roxl_16_r
                0x0000000000480b14                m68k_op_sub_32_er_pcix
                0x000000000045e650                m68k_op_btst_32_r_d
                0x000000000049623c                m68k_op_addi_8_pd7
                0x000000000047b1dc                m68k_op_cptrapcc_32
                0x0000000000485588                m68k_op_adda_32_i
                0x00000000004978ec                m68k_op_movem_16_er_pcix
                0x0000000000483b5c                m68k_op_move_32_pi_i
                0x000000000046399c                m68k_op_move_32_pd_d
                0x00000000004a9924                m68k_op_asr_16_aw
                0x000000000047a010                m68k_op_trapmi
                0x000000000047c238                m68k_op_lsr_16_ix
                0x0000000000487f80                m68k_op_st_8_al
                0x00000000004a3abc                m68k_op_add_32_re_di
                0x0000000000493018                m68k_op_divu_16_pi
                0x0000000000479ee0                m68k_op_tst_16_pcix
                0x000000000047a430                m68k_op_cas_16_ix
                0x00000000004b076c                m68k_op_eori_8_ix
                0x000000000048a018                m68k_op_add_8_er_pcix
                0x0000000000486920                m68k_op_roxl_16_al
                0x0000000000473dec                m68k_op_addx_8_mm
                0x000000000047fc1c                m68k_op_move_8_ix_d
                0x0000000000488f68                m68k_op_add_8_re_al
                0x00000000004b0a3c                m68k_op_eori_8_pd
                0x0000000000467c74                m68k_op_addq_16_pi
                0x0000000000469f90                m68k_op_shi_8_pi
                0x00000000004866c0                m68k_op_move_16_al_ai
                0x0000000000469968                m68k_op_sne_8_pi
                0x0000000000498ff0                m68k_op_sub_32_re_di
                0x000000000047f5a8                m68k_op_slt_8_ix
                0x000000000047a080                m68k_op_trapt_16
                0x00000000004880b4                m68k_op_not_8_al
                0x00000000004acb08                m68k_op_sle_8_di
                0x000000000045e224                m68k_op_bvs_32
                0x00000000004b66d0                m68k_op_move_32_ai_pcdi
                0x0000000000483370                m68k_op_negx_32_al
                0x00000000004b4080                m68k_op_bge_16
                0x0000000000478ffc                m68k_op_cmpa_16_di
                0x0000000000479ff8                m68k_op_trapgt
                0x0000000000460800                m68k_op_roxr_8_s
                0x000000000047a1b8                m68k_op_moves_8_pd7
                0x000000000046a0b4                m68k_op_sf_8_pi7
                0x00000000004658b0                m68k_op_subq_16_ai
                0x0000000000463fd8                m68k_op_rts_32
                0x0000000000477480                m68k_op_move_32_pd_di
                0x000000000049fd50                m68k_op_move_32_aw_d
                0x0000000000475240                m68k_op_mulu_16_pi
                0x000000000047abac                m68k_op_move_32_fru
                0x0000000000470794                m68k_op_move_8_pi_pi7
                0x000000000045cb0c                m68k_op_adda_32_a
                0x0000000000467f7c                m68k_op_add_16_re_ai
                0x0000000000480a5c                m68k_op_suba_32_pcix
                0x0000000000485c4c                m68k_op_eori_32_ix
                0x000000000048ecd4                m68k_op_suba_16_pcix
                0x0000000000482ae0                m68k_op_suba_32_i
                0x000000000047c574                m68k_op_move_32_ix_d
                0x00000000004809b8                m68k_op_seq_8_ix
                0x00000000004720c0                m68k_op_cmp_32_pd
                0x000000000047713c                m68k_op_add_8_er_di
                0x000000000049ab30                m68k_op_movem_32_er_ix
                0x000000000046ac08                m68k_op_negx_8_ai
                0x0000000000484358                m68k_op_eori_32_d
                0x000000000046dcfc                m68k_op_move_8_d_ai
                0x0000000000483d38                m68k_op_move_16_al_a
                0x0000000000479ef0                m68k_op_tst_16_a
                0x0000000000486d4c                m68k_op_not_16_al
                0x000000000048753c                m68k_op_add_16_re_al
                0x0000000000487fe4                m68k_op_or_8_re_al
                0x0000000000479fc8                m68k_op_trapne_16
                0x0000000000485b60                m68k_op_move_32_ix_i
                0x00000000004b6c00                m68k_op_move_8_pd7_aw
                0x0000000000472a90                m68k_op_move_32_ai_pi
                0x0000000000469a84                m68k_op_scs_8_pi7
                0x0000000000499dd4                m68k_op_neg_32_aw
                0x0000000000479178                m68k_op_move_16_d_di
                0x0000000000483c10                m68k_op_move_32_ai_i
                0x00000000004a6128                m68k_op_ori_16_al
                0x000000000045fd34                m68k_op_negx_16_d
                0x00000000004a15e0                m68k_op_eori_16_toc
                0x00000000004b7e70                m68k_op_cmp_8_aw
                0x0000000000487b68                m68k_op_svs_8_al
                0x000000000046415c                m68k_op_subq_32_pi
                0x00000000004a23ac                m68k_op_cmp_8_i
                0x000000000049c120                m68k_op_movem_32_re_aw
                0x000000000046db30                m68k_op_tst_8_ai
                0x00000000004841b8                m68k_op_eori_32_pi
                0x00000000004b81d8                m68k_op_move_8_pi7_aw
                0x00000000004b20e8                m68k_op_bclr_8_r_di
                0x0000000000468d5c                m68k_op_sgt_8_pd
                0x000000000046cbf0                m68k_op_addq_8_pd
                0x00000000004b58a0                m68k_op_btst_8_r_pcdi
                0x0000000000495d84                m68k_op_addq_8_di
                0x00000000004aa604                m68k_op_addi_16_ix
                0x0000000000461fac                m68k_op_subx_16_rr
                0x0000000000498d44                m68k_op_jsr_32_pcdi
                0x00000000004683f0                m68k_op_subq_8_pd7
                0x00000000004a4774                m68k_op_cmpi_16_di
                0x00000000004957a4                m68k_op_cmp_16_ix
                0x000000000047a0b0                m68k_op_pack_16_mm_axy7
                0x000000000045e010                m68k_op_bls_32
                0x000000000047a1d8                m68k_op_moves_8_ai
                0x000000000045d0b0                m68k_op_asr_16_s
                0x000000000047a2d8                m68k_op_chk2cmp2_32_al
                0x000000000046e354                m68k_op_suba_32_ai
                0x0000000000474954                m68k_op_or_16_er_pd
                0x0000000000468fb0                m68k_op_slt_8_pi
                0x00000000004759ec                m68k_op_adda_16_pi
                0x00000000004af1c8                m68k_op_move_8_aw_ix
                0x00000000004a33e8                m68k_op_addq_32_aw
                0x00000000004a6bb0                m68k_op_negx_16_di
                0x000000000046a24c                m68k_op_st_8_ai
                0x000000000046ee7c                m68k_op_mulu_16_ai
                0x000000000047a0c0                m68k_op_pack_16_mm_ax7
                0x000000000048f254                m68k_op_move_16_ai_pcix
                0x00000000004b7888                m68k_op_andi_16_tos
                0x00000000004b85b8                m68k_op_or_8_er_aw
                0x0000000000461ce8                m68k_op_suba_32_a
                0x00000000004729c8                m68k_op_move_32_pi_pi
                0x000000000047a548                m68k_op_bfset_32_d
                0x000000000048b620                m68k_op_btst_8_r_ix
                0x0000000000461998                m68k_op_sub_8_er_d
                0x000000000047d160                m68k_op_subq_8_ix
                0x000000000047a4c0                m68k_op_callm_32_ix
                0x000000000046a164                m68k_op_st_8_pd7
                0x0000000000464a6c                m68k_op_negx_32_pi
                0x00000000004a1348                m68k_op_jsr_32_aw
                0x00000000004a4ca8                m68k_op_cmpi_16_pi
                0x000000000047a610                m68k_op_bfexts_32_al
                0x000000000047a018                m68k_op_trappl
                0x000000000047a530                m68k_op_bfset_32_ix
                0x000000000047a388                m68k_op_chk_32_pcix
                0x000000000048ddec                m68k_op_move_16_ix_al
                0x00000000004768f0                m68k_op_suba_32_di
                0x00000000004635b8                m68k_op_clr_32_pi
                0x0000000000463d70                m68k_op_move_16_ai_d
                0x00000000004790e4                m68k_op_tst_16_di
                0x0000000000461e24                m68k_op_subq_16_a
                0x000000000047a5a8                m68k_op_bfffo_32_di
                0x0000000000475a80                m68k_op_add_16_er_pi
                0x000000000047dd98                m68k_op_addq_32_ix
                0x00000000004ac96c                m68k_op_sub_8_re_di
                0x00000000004857ac                m68k_op_move_32_al_aw
                0x00000000004afc04                m68k_op_move_8_di_di
                0x0000000000482a20                m68k_op_subi_32_d
                0x00000000004a4bac                m68k_op_move_16_di_pi
                0x000000000047a3a0                m68k_op_chk_32_aw
                0x000000000048be84                m68k_op_move_32_pd_ix
                0x00000000004ad100                m68k_op_spl_8_di
                0x00000000004af460                m68k_op_move_8_aw_pd
                0x0000000000478900                m68k_op_or_16_er_aw
                0x00000000004a0300                m68k_op_move_32_di_pd
                0x000000000046fa68                m68k_op_and_8_er_pd7
                0x000000000045f3ac                m68k_op_lsl_32_s
                0x000000000047a0d8                m68k_op_mull_32_pcix
                0x00000000004a1058                m68k_op_move_8_d_i
                0x0000000000486530                m68k_op_move_16_al_pd
                0x000000000047a2f0                m68k_op_chk2cmp2_32_di
                0x000000000046e5bc                m68k_op_move_32_pd_ai
                0x0000000000476d50                m68k_op_movea_32_di
                0x000000000046ce14                m68k_op_addq_8_ai
                0x000000000047a600                m68k_op_bfexts_32_pcix
                0x0000000000489114                m68k_op_move_8_d_pcix
                0x000000000047a438                m68k_op_cas_16_di
                0x0000000000493b80                m68k_op_divu_16_pcix
                0x0000000000477308                m68k_op_cmp_8_di
                0x0000000000494a20                m68k_op_divs_16_al
                0x00000000004715a8                m68k_op_cmpm_8_ax7
                0x000000000047dba8                m68k_op_or_16_re_ix
                0x00000000004a2260                m68k_op_cmpa_16_i
                0x00000000004a0e6c                m68k_op_move_16_pi_i
                0x00000000004b7ff4                m68k_op_tst_32_aw
                0x00000000004a5290                m68k_op_subi_16_aw
                0x000000000047a680                m68k_op_bfchg_32_ix
                0x0000000000482d74                m68k_op_ori_32_al
                0x0000000000466ff0                m68k_op_lsr_16_pd
                0x00000000004a65dc                m68k_op_ori_16_pi
                0x0000000000479ee8                m68k_op_tst_16_pcdi
                0x0000000000495258                m68k_op_divs_16_ix
                0x000000000045dd64                m68k_op_bpl_8
                0x0000000000471468                m68k_op_or_8_er_pi
                0x00000000004ad654                m68k_op_scs_8_di
                0x000000000045e1cc                m68k_op_bvc_32
                0x0000000000472180                m68k_op_and_32_er_pd
                0x0000000000483ddc                m68k_op_move_16_al_d
                0x0000000000476498                m68k_op_tst_8_di
                0x0000000000494194                m68k_op_divu_16_pcdi
                0x00000000004807b8                m68k_op_addq_16_ix
                0x0000000000469798                m68k_op_seq_8_pd
                0x00000000004988ac                m68k_op_subi_32_aw
                0x00000000004ae2fc                m68k_op_ori_8_pi
                0x000000000046c084                m68k_op_bset_8_r_pi
                0x00000000004b01b0                m68k_op_move_8_di_d
                0x000000000048fe50                m68k_op_chk_16_di
                0x000000000045e758                m68k_op_cmp_8_d
                0x000000000045fa90                m68k_op_mulu_16_d
                0x00000000004746b8                m68k_op_and_16_er_pd
                0x000000000047cdb4                m68k_op_and_8_re_ix
                0x000000000046f5d8                m68k_op_move_16_ai_ai
                0x000000000047a3b0                m68k_op_chk_32_di
                0x000000000049fdf8                m68k_op_move_32_di_i
                0x00000000004643c4                m68k_op_sub_32_re_pi
                0x0000000000486458                m68k_op_move_16_al_di
                0x00000000004a6d50                m68k_op_neg_16_di
                0x000000000049d2ac                m68k_op_movem_32_re_pd
                0x0000000000461b88                m68k_op_sub_32_er_a
                0x000000000047a178                m68k_op_moves_16_di
                0x0000000000471664                m68k_op_cmp_8_pi
                0x0000000000473b14                m68k_op_move_8_pd7_pd
                0x0000000000479f28                m68k_op_trapge_32
                0x00000000004b25ec                m68k_op_bchg_8_s_pd
                0x00000000004b0bd0                m68k_op_eori_8_pi
                0x000000000047a390                m68k_op_chk_32_pcdi
                0x00000000004711c0                m68k_op_move_8_pi7_pi
                0x0000000000484e3c                m68k_op_andi_32_d
                0x00000000004a1230                m68k_op_lea_32_aw
                0x0000000000463efc                m68k_op_clr_16_ai
                0x0000000000487bd8                m68k_op_svc_8_al
                0x00000000004aeda8                m68k_op_movep_32_re
                0x00000000004ad804                m68k_op_sls_8_aw
                0x00000000004af2cc                m68k_op_move_8_aw_di
                0x000000000048fbec                m68k_op_chk_16_aw
                0x000000000047a478                m68k_op_cas_8_pd7
                0x00000000004a05ec                m68k_op_move_32_di_a
                0x0000000000478a34                m68k_op_muls_16_aw
                0x000000000048eeb0                m68k_op_cmpa_16_pcix
                0x000000000046cd58                m68k_op_addq_8_pi
                0x0000000000470f8c                m68k_op_move_8_pd_pi
                0x0000000000487f1c                m68k_op_sf_8_al
                0x00000000004a4d6c                m68k_op_move_16_aw_ai
                0x0000000000495f4c                m68k_op_addi_8_aw
                0x00000000004b6cb8                m68k_op_ori_16_tos
                0x000000000045fe48                m68k_op_not_8_d
                0x000000000047150c                m68k_op_move_8_d_pi
                0x0000000000469ac0                m68k_op_scs_8_pi
                0x000000000047a964                m68k_op_trap
                0x0000000000474b54                m68k_op_move_16_toc_pd
                0x00000000004b6868                m68k_op_move_32_pi_pcdi
                0x000000000045f2a4                m68k_op_lsl_8_s
                0x000000000047a3f0                m68k_op_cas_32_aw
                0x0000000000489db8                m68k_op_move_8_pi7_pcix
                0x000000000045e124                m68k_op_bne_32
                0x000000000045ee20                m68k_op_jmp_32_ai
                0x000000000048def0                m68k_op_add_32_er_ix
                0x0000000000490d38                m68k_op_movea_16_pcix
                0x000000000047a168                m68k_op_moves_16_aw
                0x000000000047a458                m68k_op_cas_8_al
                0x00000000004b55cc                m68k_op_move_8_pd7_pcdi
                0x0000000000479fd8                m68k_op_trapcc_16
                0x0000000000472650                m68k_op_suba_32_pi
                0x0000000000477d24                m68k_op_sub_16_er_pcdi
                0x000000000047a278                m68k_op_divl_32_ix
                0x0000000000478f3c                m68k_op_mulu_16_di
                0x0000000000468a44                m68k_op_sub_8_re_ai
                0x00000000004a6038                m68k_op_ror_16_di
                0x000000000047a008                m68k_op_trapge
                0x000000000045ec48                m68k_op_eor_32_d
                0x000000000047a2d0                m68k_op_cmpi_8_pcdi
                0x000000000046a778                m68k_op_not_8_pi7
                0x000000000047a558                m68k_op_bfins_32_aw
                0x000000000047a1a8                m68k_op_moves_8_ix
                0x000000000046849c                m68k_op_subq_8_pd
                0x00000000004b83d4                m68k_op_move_32_ix_aw
                0x00000000004a0cec                m68k_op_move_16_di_d
                0x00000000004aaf98                m68k_op_btst_8_s_aw
                0x00000000004a9c8c                m68k_op_andi_16_ix
                0x000000000046bc78                m68k_op_clr_8_pd7
                0x0000000000486144                m68k_op_move_16_tos_al
                0x000000000048c154                m68k_op_move_8_al_al
                0x000000000049995c                m68k_op_or_16_er_i
                0x0000000000461428                m68k_op_scc_8_d
                0x000000000046beb4                m68k_op_bset_8_r_pd7
                0x00000000004852f0                m68k_op_addi_32_pi
                0x0000000000489c4c                m68k_op_move_8_pd_al
                0x000000000046b83c                m68k_op_move_8_ai_d
                0x0000000000470180                m68k_op_move_8_pi_pd7
                0x000000000045f8c0                m68k_op_movea_32_d
                0x000000000046d374                m68k_op_abcd_8_mm_ax7
                0x0000000000482660                m68k_op_subi_32_al
                0x00000000004aa270                m68k_op_addq_16_aw
                0x0000000000487d90                m68k_op_scc_8_al
                0x0000000000496138                m68k_op_addi_8_di
                0x00000000004b4e48                m68k_op_dbeq_16
                0x00000000004b19cc                m68k_op_bclr_8_s_aw
                0x0000000000470844                m68k_op_move_8_pi7_pi7
                0x000000000047a598                m68k_op_bfffo_32_aw
                0x0000000000461edc                m68k_op_subq_32_a
                0x0000000000468ed0                m68k_op_slt_8_pd7
                0x000000000045f83c                m68k_op_movea_16_d
                0x0000000000474bfc                m68k_op_movea_16_pd
                0x00000000004a3e10                m68k_op_move_16_di_al
                0x000000000045c8ac                m68k_op_add_16_er_a
                0x000000000047a428                m68k_op_cas_16_aw
                0x000000000046c12c                m68k_op_bset_8_r_ai
                0x00000000004a9800                m68k_op_asl_16_di
                0x00000000004a5bc4                m68k_op_roxr_16_aw
                0x000000000047d7b4                m68k_op_bset_8_r_ix
                0x00000000004a01f4                m68k_op_move_32_di_di
                0x000000000049f6a4                m68k_op_move_32_aw_al
                0x000000000045eb9c                m68k_op_eor_8_d
                0x000000000045e6dc                m68k_op_clr_16_d
                0x000000000048c368                m68k_op_and_8_er_al
                0x000000000047bad0                m68k_op_bchg_8_r_ix
                0x0000000000476a58                m68k_op_move_32_d_di
                0x0000000000471af4                m68k_op_sub_32_er_pd
                0x000000000046a810                m68k_op_not_8_pi
                0x0000000000461574                m68k_op_seq_8_d
                0x000000000046f304                m68k_op_cmp_16_ai
                0x0000000000491224                m68k_op_movea_16_ix
                0x000000000048b15c                m68k_op_move_32_al_al
                0x0000000000484d7c                m68k_op_andi_32_ai
                0x00000000004613ac                m68k_op_sls_8_d
                0x000000000048931c                m68k_op_move_8_pi7_al
                0x000000000047a380                m68k_op_chk_32_i
                0x000000000046b704                m68k_op_move_8_pi7_d
                0x00000000004a6ca0                m68k_op_neg_16_aw
                0x0000000000460e30                m68k_op_roxl_32_s
                0x000000000046be40                m68k_op_clr_8_ai
                0x000000000047a510                m68k_op_bftst_32_ai
                0x000000000049b894                m68k_op_movem_32_er_pi
                0x00000000004b5a3c                m68k_op_bhi_16
                0x00000000004a92b8                m68k_op_eori_16_pd
                0x00000000004a1944                m68k_op_eori_8_d
                0x00000000004612fc                m68k_op_sf_8_d
                0x000000000049107c                m68k_op_muls_16_ix
                0x0000000000474e18                m68k_op_move_16_ai_pd
                0x00000000004a3294                m68k_op_and_16_er_i
                0x0000000000471ff8                m68k_op_cmpa_32_pd
                0x0000000000471704                m68k_op_btst_8_r_pi
                0x00000000004aa9dc                m68k_op_addi_16_ai
                0x000000000047f128                m68k_op_eor_8_ix
                0x000000000048c7fc                m68k_op_move_8_ai_ix
                0x00000000004a3bc0                m68k_op_add_16_er_i
                0x0000000000476b00                m68k_op_move_8_d_di
                0x00000000004702c8                m68k_op_move_8_ai_pd7
                0x000000000048ea7c                m68k_op_or_16_er_pcix
                0x0000000000466dac                m68k_op_lsl_16_pd
                0x00000000004697e4                m68k_op_seq_8_pi7
                0x000000000045ff30                m68k_op_or_8_er_d
                0x00000000004a81fc                m68k_op_movem_16_er_ai
                0x00000000004b663c                m68k_op_movea_32_pcdi
                0x000000000047a070                m68k_op_trapf
                0x00000000004854c8                m68k_op_addi_32_d
                0x000000000046df60                m68k_op_add_8_er_ai
                0x00000000004780e0                m68k_op_movea_16_pcdi
                0x000000000046f690                m68k_op_move_16_d_ai
                0x00000000004a8fc8                m68k_op_eori_16_aw
                0x000000000047e550                m68k_op_addq_8_ix
                0x000000000047e3fc                m68k_op_clr_32_ix
                0x0000000000469d10                m68k_op_sls_8_pd
                0x00000000004b0d70                m68k_op_eor_8_aw
                0x000000000046ec14                m68k_op_tst_16_ai
                0x0000000000482588                m68k_op_subq_32_al
                0x0000000000499f60                m68k_op_mulu_16_i
                0x00000000004adf8c                m68k_op_ori_8_di
                0x0000000000490808                m68k_op_chk_16_pcix
                0x00000000004ad088                m68k_op_spl_8_aw
                0x00000000004969e4                m68k_op_move_32_d_pcdi
                0x00000000004b2818                m68k_op_bchg_8_s_ai
                0x00000000004b6a30                m68k_op_move_8_di_aw
                0x0000000000474774                m68k_op_tst_16_pd
                0x000000000048ceb8                m68k_op_add_8_er_ix
                0x000000000046e6a8                m68k_op_move_32_pi_ai
                0x00000000004744a0                m68k_op_move_16_d_pd
                0x00000000004af6b0                m68k_op_move_8_aw_ai
                0x000000000047a290                m68k_op_divl_32_pi
                0x00000000004ad328                m68k_op_svc_8_di
                0x000000000047a5b8                m68k_op_bfffo_32_d
                0x0000000000471914                m68k_op_cmpm_8
                0x0000000000498ac8                m68k_op_subi_16_d
                0x00000000004b2c00                m68k_op_andi_8_ix
                0x000000000047a268                m68k_op_divl_32_al
                0x000000000047a4b8                m68k_op_callm_32_aw
                0x000000000047fdfc                m68k_op_svs_8_ix
                0x000000000046e3d8                m68k_op_sub_32_er_ai
                0x000000000047a330                m68k_op_chk2cmp2_16_ai
                0x000000000046fed8                m68k_op_sbcd_8_mm_ay7
                0x0000000000480efc                m68k_op_movea_32_pcix
                0x0000000000470d6c                m68k_op_and_8_er_pi7
                0x0000000000496ec0                m68k_op_movem_32_er_pcdi
                0x00000000004a5824                m68k_op_sub_16_re_aw
                0x00000000004aced0                m68k_op_sge_8_di
                0x000000000049a6cc                m68k_op_movem_32_er_aw
                0x0000000000477f70                m68k_op_mulu_16_pcdi
                0x000000000047a620                m68k_op_bfexts_32_ix
                0x000000000046ad3c                m68k_op_neg_8_pd
                0x00000000004830c4                m68k_op_ori_32_d
                0x0000000000467820                m68k_op_asr_16_pi
                0x000000000047a570                m68k_op_bfins_32_ai
                0x000000000047a0c8                m68k_op_pack_16_rr
                0x000000000046b550                m68k_op_move_8_pd_d
                0x000000000046c58c                m68k_op_bchg_8_r_pd
                0x00000000004a91b4                m68k_op_eori_16_di
                0x00000000004b0328                m68k_op_move_8_pd7_i
                0x000000000047d258                m68k_op_add_32_re_ix
                0x000000000046721c                m68k_op_eor_16_pd
                0x0000000000489e80                m68k_op_move_8_pi_al
                0x00000000004aa014                m68k_op_andi_16_ai
                0x000000000049dd30                m68k_op_movem_16_re_aw
                0x00000000004727b0                m68k_op_or_32_er_pi
                0x00000000004b49e8                m68k_op_dbmi_16
                0x000000000047fa2c                m68k_op_neg_8_ix
                0x00000000004ab734                m68k_op_cmpi_8_pi7
                0x00000000004693cc                m68k_op_spl_8_pi7
                0x000000000049602c                m68k_op_addi_8_ix
                0x0000000000479f90                m68k_op_traplt_16
                0x0000000000479f70                m68k_op_trapls_32
                0x00000000004754cc                m68k_op_move_16_pd_pi
                0x000000000047a158                m68k_op_moves_32_ai
                0x00000000004b8290                m68k_op_btst_8_r_aw
                0x0000000000476160                m68k_op_move_32_d_aw
                0x00000000004a8d40                m68k_op_lsr_16_aw
                0x00000000004ade80                m68k_op_ori_8_ix
                0x00000000004710fc                m68k_op_move_8_pi_pi
                0x0000000000487910                m68k_op_sgt_8_al
                0x0000000000473ef4                m68k_op_addx_8_mm_ax7
                0x000000000049fb0c                m68k_op_move_32_aw_pi
                0x00000000004b03c0                m68k_op_move_8_pi_i
                0x00000000004b13e4                m68k_op_bset_8_s_pd7
                0x00000000004844bc                m68k_op_cmpi_32_al
                0x0000000000496630                m68k_op_add_8_re_aw
                0x00000000004808b8                m68k_op_rol_16_ix
                0x000000000047a050                m68k_op_trapls
                0x0000000000467664                m68k_op_asl_16_ai
                0x000000000046d5d0                m68k_op_pea_32_ai
                0x0000000000486058                m68k_op_cmpi_32_di
                0x000000000045edcc                m68k_op_ext_32
                0x000000000046f3a4                m68k_op_and_16_er_ai
                0x000000000047bf94                m68k_op_jmp_32_pcix
                0x000000000047961c                m68k_op_suba_16_di
                0x0000000000478e74                m68k_op_add_16_er_aw
                0x000000000047a688                m68k_op_bfchg_32_di
                0x000000000047a1c8                m68k_op_moves_8_pi7
                0x000000000047eb44                m68k_op_bclr_8_r_ix
                0x0000000000463410                m68k_op_move_32_ai_a
                0x000000000045e3ec                m68k_op_bgt_32
                0x000000000047a288                m68k_op_divl_32_pd
                0x00000000004af3a8                m68k_op_move_8_aw_pd7
                0x0000000000484598                m68k_op_cmpi_32_pd
                0x000000000046a208                m68k_op_st_8_pi
                0x0000000000465220                m68k_op_addq_32_pd
                0x000000000046f78c                m68k_op_sub_8_er_pd7
                0x0000000000466160                m68k_op_rol_16_pi
                0x0000000000479ae0                m68k_op_and_16_er_di
                0x00000000004ad988                m68k_op_shi_8_aw
                0x000000000048cfbc                m68k_op_move_32_ix_ix
                0x00000000004a4584                m68k_op_move_16_aw_di
                0x000000000047a690                m68k_op_bfchg_32_ai
                0x000000000047afd4                m68k_op_1010
                0x0000000000460a00                m68k_op_roxr_8_r
                0x000000000048ce0c                m68k_op_move_16_toc_al
                0x000000000047a5e0                m68k_op_bfextu_32_ix
                0x0000000000475de8                m68k_op_cmp_32_aw
                0x000000000047b6f4                m68k_op_move_16_ix_d
                0x00000000004912f8                m68k_op_sub_16_er_ix
                0x000000000047beb0                m68k_op_not_32_ix
                0x000000000047c3d0                m68k_op_move_16_ix_pi
                0x0000000000498c3c                m68k_op_pea_32_pcdi
                0x0000000000481e3c                m68k_op_move_16_tos_pi
                0x000000000047f75c                m68k_op_sls_8_ix
                0x0000000000477958                m68k_op_move_16_pd_pcdi
                0x0000000000492a00                m68k_op_divs_16_pd
                0x000000000047ba40                m68k_op_pea_32_pcix
                0x0000000000494758                m68k_op_divu_16_al
                0x00000000004ae728                m68k_op_not_8_di
                0x000000000045f320                m68k_op_lsl_16_s
                0x00000000004b3d44                m68k_op_dbgt_16
                0x00000000004789a0                m68k_op_adda_16_aw
                0x000000000046596c                m68k_op_sub_16_re_pd
                0x000000000047a038                m68k_op_trapne
                0x000000000047a110                m68k_op_mull_32_pi
                0x000000000045d544                m68k_op_asl_8_s
                0x00000000004b3028                m68k_op_andi_8_pi
                0x00000000004afad8                m68k_op_move_8_di_ix
                0x0000000000464f5c                m68k_op_eor_32_ai
                0x000000000046f728                m68k_op_tst_8_pd7
                0x000000000045d868                m68k_op_asl_16_r
                0x0000000000467df4                m68k_op_add_16_re_pd
                0x0000000000485108                m68k_op_addi_32_al
                0x000000000047a300                m68k_op_chk2cmp2_32_pcix
                0x00000000004616c0                m68k_op_spl_8_d
                0x0000000000487a88                m68k_op_smi_8_al
                0x0000000000490a90                m68k_op_move_16_pd_pcix
                0x000000000047a2a0                m68k_op_divl_32_d
                0x00000000004ae670                m68k_op_not_8_aw
                0x000000000045e880                m68k_op_cmp_32_d
                0x00000000004967e4                m68k_op_move_32_aw_pcix
                0x000000000048d678                m68k_op_move_16_d_al
                0x000000000047a220                m68k_op_move_16_frc_ai
                0x0000000000498e84                m68k_op_suba_16_i
                0x0000000000475594                m68k_op_move_16_pi_pi
                0x00000000004a9d8c                m68k_op_andi_16_di
                0x000000000047a540                m68k_op_bfset_32_ai
                0x0000000000471f68                m68k_op_move_32_d_pd
                0x0000000000467eb8                m68k_op_add_16_re_pi
                0x00000000004ac0e0                m68k_op_subi_8_al
                0x00000000004a08f8                m68k_op_move_16_aw_a
                0x00000000004b52a0                m68k_op_move_8_ai_pcdi
                0x000000000045e27c                m68k_op_bpl_32
                0x0000000000483ef0                m68k_op_jsr_32_al
                0x00000000004acfec                m68k_op_smi_8_di
                0x000000000045e0cc                m68k_op_bcs_32
                0x00000000004ae3d8                m68k_op_ori_8_ai
                0x0000000000472f70                m68k_op_cmpm_32
                0x000000000045efc4                m68k_op_lsr_32_s
                0x0000000000466f34                m68k_op_lsl_16_ai
                0x0000000000469008                m68k_op_slt_8_ai
                0x000000000047a580                m68k_op_bfffo_32_pcix
                0x000000000046b1dc                m68k_op_nbcd_8_pi7
                0x000000000047a628                m68k_op_bfexts_32_di
                0x00000000004617a0                m68k_op_sge_8_d
                0x000000000047a148                m68k_op_moves_32_pd
                0x000000000048a96c                m68k_op_adda_32_al
                0x00000000004ac4ac                m68k_op_subi_8_pd7
                0x000000000046fca0                m68k_op_subx_8_mm_ay7
                0x000000000046ba44                m68k_op_eor_8_pi7
                0x000000000045e600                m68k_op_bset_32_r_d
                0x0000000000464b2c                m68k_op_negx_32_ai
                0x00000000004762a0                m68k_op_or_32_er_aw
                0x000000000048f730                m68k_op_chk_16_d
                0x0000000000466788                m68k_op_not_16_pd
                0x000000000049c578                m68k_op_movem_32_re_ix
                0x0000000000466538                m68k_op_or_16_re_pd
                0x00000000004ab300                m68k_op_cmpi_8_di
                0x00000000004b2984                m68k_op_bchg_8_r_di
                0x000000000047a090                m68k_op_rtm_32
                0x00000000004ad8b0                m68k_op_sls_8_di
                0x00000000004a30f8                m68k_op_and_32_re_aw
                0x0000000000469190                m68k_op_sge_8_ai
                0x000000000047fea4                m68k_op_jmp_32_ix
                0x0000000000495598                m68k_op_add_16_er_ix
                0x00000000004636a8                m68k_op_move_16_frs_pd
                0x00000000004acc78                m68k_op_sgt_8_di
                0x00000000004681b4                m68k_op_tas_8_pi7
                0x00000000004605b4                m68k_op_rol_8_r
                0x00000000004a4184                m68k_op_cmpi_16_aw
                0x000000000047c32c                m68k_op_lea_32_pcix
                0x0000000000488930                m68k_op_move_8_al_d
                0x0000000000470c64                m68k_op_cmp_8_pi7
                0x000000000049986c                m68k_op_or_32_re_di
                0x00000000004a99f8                m68k_op_asr_16_di
                0x0000000000476048                m68k_op_adda_32_aw
                0x0000000000466bc8                m68k_op_neg_16_pd
                0x000000000048c2ec                m68k_op_tst_8_al
                0x000000000046d030                m68k_op_add_8_re_pi7
                0x000000000045cac4                m68k_op_adda_32_d
                0x0000000000460eec                m68k_op_roxl_8_r
                0x00000000004ad19c                m68k_op_svs_8_aw
                0x0000000000483228                m68k_op_or_32_er_i
                0x000000000047a408                m68k_op_cas_32_pd
                0x0000000000470aa0                m68k_op_or_8_er_pi7
                0x0000000000479558                m68k_op_move_16_toc_di
                0x0000000000476df4                m68k_op_move_8_ai_di
                0x0000000000462124                m68k_op_tas_8_d
                0x00000000004a2c60                m68k_op_bchg_32_s_d
                0x000000000047a4e0                m68k_op_bftst_32_pcix
                0x000000000047a1c0                m68k_op_moves_8_pd
                0x000000000047cbb4                m68k_op_negx_16_ix
                0x000000000047bca0                m68k_op_sub_32_re_ix
                0x00000000004900cc                m68k_op_chk_16_pd
                0x000000000048760c                m68k_op_tas_8_al
                0x000000000045cc48                m68k_op_addq_16_a
                0x000000000049588c                m68k_op_divu_16_ix
                0x00000000004694a0                m68k_op_svs_8_pd7
                0x00000000004b097c                m68k_op_eori_8_pd7
                0x00000000004634a8                m68k_op_move_32_ai_d
                0x000000000048da24                m68k_op_move_16_al_al
                0x00000000004abf28                m68k_op_subq_8_aw
                0x0000000000461ca0                m68k_op_suba_32_d
                0x000000000045e074                m68k_op_bcc_32
                0x0000000000478220                m68k_op_move_16_d_pcdi
                0x000000000047cad8                m68k_op_move_32_ix_a
                0x00000000004aca54                m68k_op_sle_8_aw
                0x0000000000476844                m68k_op_btst_8_r_di
                0x000000000048c058                m68k_op_move_8_pi_ix
                0x000000000047a368                m68k_op_chk2cmp2_8_ai
                0x000000000046ec88                m68k_op_suba_16_ai
                0x000000000045ca30                m68k_op_adda_16_d
                0x000000000047a358                m68k_op_chk2cmp2_8_ix
                0x00000000004b16bc                m68k_op_bset_8_s_ai
                0x000000000045f944                m68k_op_move_16_frs_d
                0x0000000000471794                m68k_op_and_8_er_pi
                0x00000000004a5ca4                m68k_op_roxr_16_di
                0x00000000004a21d0                m68k_op_cmpi_8_d
                0x000000000047b89c                m68k_op_sne_8_ix
                0x00000000004acbe8                m68k_op_sgt_8_aw
                0x00000000004abd64                m68k_op_tas_8_aw
                0x0000000000465554                m68k_op_add_32_re_pi
                0x0000000000461914                m68k_op_sle_8_d
                0x00000000004b1a9c                m68k_op_bclr_8_s_ix
                0x00000000004b1eb0                m68k_op_bclr_8_s_pi
                0x00000000004b5428                m68k_op_move_8_aw_pcdi
                0x00000000004763e0                m68k_op_cmpa_32_aw
                0x00000000004aec50                m68k_op_nbcd_8_di
                0x000000000045fe98                m68k_op_not_16_d
                0x00000000004b616c                m68k_op_move_8_pi_pcdi
                0x000000000048b3a8                m68k_op_move_8_d_al
                0x0000000000461c54                m68k_op_suba_16_a
                0x0000000000469eec                m68k_op_shi_8_pd
                0x000000000047a310                m68k_op_chk2cmp2_16_al
                0x00000000004991b4                m68k_op_sub_8_er_i
                0x000000000047d4d4                m68k_op_asr_16_ix
                0x000000000047a668                m68k_op_bfclr_32_d
                0x00000000004b1c8c                m68k_op_bclr_8_s_pd7
                0x000000000045cd44                m68k_op_addx_8_rr
                0x00000000004ae9a0                m68k_op_neg_8_aw
                0x000000000045d310                m68k_op_asr_16_r
                0x000000000048cac4                m68k_op_sub_8_er_ix
                0x00000000004b3a5c                m68k_op_move_32_al_pcdi
                0x00000000004a16c8                m68k_op_eori_32_aw
                0x00000000004a5e74                m68k_op_rol_16_di
                0x000000000048f978                m68k_op_chk_16_al
                0x000000000049f2ec                m68k_op_move_16_frs_aw
                0x00000000004a491c                m68k_op_move_16_di_pd
                0x000000000047e190                m68k_op_subq_16_ix
                0x0000000000469600                m68k_op_svc_8_pd7
                0x000000000048b990                m68k_op_move_8_pi7_ix
                0x00000000004b0878                m68k_op_eori_8_di
                0x0000000000478494                m68k_op_move_16_pi_aw
                0x0000000000499484                m68k_op_ori_32_aw
                0x000000000045d6b0                m68k_op_asl_32_s
                0x000000000047a0f0                m68k_op_mull_32_aw
                0x00000000004a51ac                m68k_op_subi_16_al
                0x0000000000476c8c                m68k_op_and_32_er_di
                0x0000000000489d14                m68k_op_cmp_8_al
                0x00000000004777d8                m68k_op_move_32_ai_di
                0x00000000004b5fdc                m68k_op_sub_32_er_pcdi
                0x00000000004ad5dc                m68k_op_scs_8_aw
                0x0000000000469868                m68k_op_seq_8_ai
                0x00000000004a243c                m68k_op_clr_32_aw
                0x00000000004884b8                m68k_op_move_8_al_di
                0x0000000000478550                m68k_op_move_16_toc_aw
                0x0000000000477654                m68k_op_adda_32_di
                0x000000000045fc04                m68k_op_neg_16_d
                0x000000000047a2e0                m68k_op_chk2cmp2_32_aw
                0x000000000047b7cc                m68k_op_jsr_32_pcix
                0x000000000048b448                m68k_op_sub_32_er_ix
                0x00000000004741b0                m68k_op_add_16_er_pd
                0x0000000000461da8                m68k_op_subq_16_d
                0x0000000000472d64                m68k_op_and_32_er_pi
                0x00000000004a2ab0                m68k_op_bset_32_s_d
                0x0000000000461e68                m68k_op_subq_32_d
                0x000000000047c4d0                m68k_op_pea_32_ix
                0x000000000047dea0                m68k_op_negx_8_ix
                0x00000000004aa900                m68k_op_addi_16_pi
                0x00000000004646f4                m68k_op_or_32_re_ai
                0x00000000004a6950                m68k_op_not_16_aw
                0x0000000000495c8c                m68k_op_move_16_ai_ix
                0x000000000047a360                m68k_op_chk2cmp2_8_di
                0x00000000004a12ac                m68k_op_lea_32_di
                0x000000000045e568                m68k_op_bra_8
                0x000000000047a650                m68k_op_bfclr_32_ix
                0x0000000000465e24                m68k_op_roxr_16_pd
                0x0000000000491bfc                m68k_op_move_16_d_ix
                0x000000000047ce9c                m68k_op_move_32_ix_pi
                0x000000000047a528                m68k_op_bfset_32_aw
                0x00000000004b4c18                m68k_op_dbvs_16
                0x0000000000468604                m68k_op_subq_8_pi
                0x0000000000479ea8                m68k_op_unpk_16_mm_ax7
                0x000000000049f944                m68k_op_move_32_aw_di
                0x00000000004966fc                m68k_op_add_8_re_di
                0x000000000048f094                m68k_op_move_16_toc_pcix
                0x00000000004a4fe4                m68k_op_subq_16_aw
                0x00000000004972e8                m68k_op_move_16_aw_pcix
                0x000000000045da94                m68k_op_bhi_8
                0x0000000000469568                m68k_op_svs_8_pi
                0x000000000048a198                m68k_op_move_8_ix_pcix
                0x0000000000479fe0                m68k_op_trapls_16
                0x0000000000469930                m68k_op_sne_8_pi7
                0x0000000000495e70                m68k_op_addi_8_al
                0x000000000047a658                m68k_op_bfclr_32_di
                0x0000000000485030                m68k_op_addq_32_al
                0x0000000000468af8                m68k_op_sle_8_pd7
                0x000000000047a498                m68k_op_cas_8_ai
                0x0000000000461a88                m68k_op_sub_16_er_a
                0x000000000045ecdc                m68k_op_exg_32_aa
                0x000000000048aae4                m68k_op_move_8_pi_pcix
                0x000000000045e2d4                m68k_op_bmi_32
                0x00000000004778ac                m68k_op_muls_16_pcdi
                0x000000000049388c                m68k_op_divs_16_ai
                0x00000000004acf74                m68k_op_smi_8_aw
                0x000000000047565c                m68k_op_move_16_ai_pi
                0x000000000047a160                m68k_op_moves_16_al
                0x0000000000488de8                m68k_op_addq_8_al
                0x000000000047a468                m68k_op_cas_8_ix
                0x0000000000486850                m68k_op_sub_16_re_al
                0x0000000000498b84                m68k_op_subi_8_d
                0x000000000047bbb8                m68k_op_neg_32_ix
                0x00000000004ae090                m68k_op_ori_8_pd7
                0x00000000004873b0                m68k_op_and_16_re_al
                0x00000000004a4098                m68k_op_move_16_di_aw
                0x0000000000488700                m68k_op_move_8_al_pi7
                0x0000000000482188                m68k_op_move_32_ai_pcix
                0x00000000004b2758                m68k_op_bchg_8_s_pi
                0x000000000047a098                m68k_op_rtd_32
                0x000000000047e75c                m68k_op_move_8_ix_ai
                0x000000000045f038                m68k_op_lsr_8_r
                0x0000000000472e9c                m68k_op_add_32_er_pi
                0x000000000045d15c                m68k_op_asr_32_s
                0x000000000046a128                m68k_op_sf_8_ai
                0x000000000045e5b4                m68k_op_bra_32
                0x0000000000474d50                m68k_op_move_16_pi_pd
                0x000000000047ecd8                m68k_op_lea_32_ix
                0x000000000047a630                m68k_op_bfexts_32_ai
                0x000000000047a5f8                m68k_op_bfextu_32_d
                0x00000000004ada10                m68k_op_shi_8_di
                0x000000000047e348                m68k_op_sge_8_ix
                0x0000000000490df0                m68k_op_move_16_d_pcix
                0x000000000047a3e8                m68k_op_cas_32_al
                0x000000000047e648                m68k_op_move_16_ix_di
                0x00000000004752e8                m68k_op_muls_16_pi
                0x000000000045f68c                m68k_op_move_8_d_d
                0x000000000048a5a4                m68k_op_add_8_er_al
                0x0000000000469ea4                m68k_op_shi_8_pd7
                0x0000000000473bc0                m68k_op_move_8_pi_pd
                0x0000000000469718                m68k_op_svc_8_ai
                0x000000000047f65c                m68k_op_eor_32_ix
                0x00000000004990f4                m68k_op_sub_16_er_i
                0x0000000000474390                m68k_op_addx_16_mm
                0x00000000004b2358                m68k_op_bchg_8_s_ix
                0x00000000004a0788                m68k_op_move_16_al_i
                0x00000000004a4668                m68k_op_move_16_di_di
                0x000000000048040c                m68k_op_clr_16_ix
                0x000000000048858c                m68k_op_move_8_al_pd7
                0x00000000004865f8                m68k_op_move_16_al_pi
                0x0000000000498f08                m68k_op_sub_32_re_aw
                0x00000000004706fc                m68k_op_move_8_pd7_pi7
                0x000000000046d6a4                m68k_op_bsr_32
                0x0000000000473244                m68k_op_move_8_d_pd
                0x000000000047a120                m68k_op_mull_32_d
                0x00000000004aef90                m68k_op_move_8_al_i
                0x00000000004642ec                m68k_op_sub_32_re_pd
                0x000000000048b6f0                m68k_op_move_32_pd_al
                0x00000000004a8c54                m68k_op_lsl_16_di
                0x0000000000479f38                m68k_op_trappl_32
                0x000000000047947c                m68k_op_move_16_pi_di
                0x00000000004a8eec                m68k_op_eori_16_al
                0x00000000004b6318                m68k_op_and_32_er_pcdi
                0x000000000045ddbc                m68k_op_bmi_8
                0x000000000047a0b8                m68k_op_pack_16_mm_ay7
                0x00000000004a6504                m68k_op_ori_16_pd
                0x00000000004b1550                m68k_op_bset_8_s_pi7
                0x00000000004a4adc                m68k_op_move_16_aw_pi
                0x00000000004611d8                m68k_op_sbcd_8_rr
                0x00000000004a06bc                m68k_op_move_32_di_d
                0x000000000047c904                m68k_op_move_16_frs_ix
                0x000000000049fbdc                m68k_op_move_32_aw_ai
                0x0000000000481978                m68k_op_move_16_tos_pcix
                0x0000000000475b50                m68k_op_move_32_ai_aw
                0x000000000046cec8                m68k_op_add_8_re_pd7
                0x000000000049f56c                m68k_op_movea_16_i
                0x00000000004887b0                m68k_op_move_8_al_pi
                0x000000000046746c                m68k_op_asl_16_pd
                0x0000000000485d58                m68k_op_andi_32_ix
                0x000000000049244c                m68k_op_divs_16_aw
                0x000000000047a400                m68k_op_cas_32_di
                0x000000000047a048                m68k_op_trapcc
                0x00000000004b72a0                m68k_op_eori_16_tos
                0x00000000004726dc                m68k_op_sub_32_er_pi
                0x000000000048bc30                m68k_op_and_32_er_al
                0x0000000000479f58                m68k_op_trapne_32
                0x000000000047a590                m68k_op_bfffo_32_al
                0x000000000047a618                m68k_op_bfexts_32_aw
                0x0000000000465bb0                m68k_op_roxl_16_pd
                0x00000000004b41f8                m68k_op_bpl_16
                0x000000000045ce64                m68k_op_addx_32_rr
                0x000000000048e628                m68k_op_cmp_16_al
                0x00000000004a0b38                m68k_op_move_16_di_i
                0x0000000000465728                m68k_op_subq_16_pd
                0x000000000048bfac                m68k_op_or_8_er_al
                0x0000000000470038                m68k_op_move_8_pd_pd7
                0x000000000045eb7c                m68k_op_dbt_16
                0x0000000000475888                m68k_op_cmp_16_pi
                0x00000000004a37dc                m68k_op_addi_16_d
                0x0000000000471050                m68k_op_move_8_pd7_pi
                0x000000000047a500                m68k_op_bftst_32_ix
                0x000000000048c4f4                m68k_op_move_8_ix_al
                0x0000000000488a9c                m68k_op_clr_8_al
                0x000000000045f87c                m68k_op_movea_16_a
                0x000000000047a0a0                m68k_op_pflush_32
                0x000000000045ff84                m68k_op_or_16_er_d
                0x000000000045c830                m68k_op_add_16_er_d
                0x00000000004987b0                m68k_op_subq_32_di
                0x000000000046a288                m68k_op_or_8_re_pd7
                0x0000000000470ecc                m68k_op_cmpm_8_ay7
                0x000000000045e32c                m68k_op_bge_32
                0x00000000004ac700                m68k_op_subi_8_pi
                0x00000000004a0c1c                m68k_op_move_16_di_a
                0x0000000000469cb8                m68k_op_sls_8_pd7
                0x0000000000479f10                m68k_op_traple_32
                0x0000000000471a68                m68k_op_suba_32_pd
                0x0000000000488400                m68k_op_move_8_al_aw
                0x000000000047a5c8                m68k_op_bfextu_32_pcdi
                0x0000000000482334                m68k_op_cmpa_32_pcix
                0x0000000000491eb4                m68k_op_divu_16_di
                0x00000000004b1828                m68k_op_bset_8_r_di
                0x00000000004b3f0c                m68k_op_or_8_er_pcdi
                0x000000000048c9c8                m68k_op_cmp_32_ix
                0x000000000047a470                m68k_op_cas_8_di
                0x000000000046a634                m68k_op_not_8_pd7
                0x000000000047a4b0                m68k_op_callm_32_al
                0x00000000004b8cc0                m68k_op_move_16_tos_aw
                0x0000000000475c04                m68k_op_and_8_er_aw
                0x000000000048387c                m68k_op_move_32_al_ai
                0x00000000004b6934                m68k_op_move_32_di_pcdi
                0x00000000004835c4                m68k_op_movea_32_i
                0x000000000046de28                m68k_op_btst_8_r_ai
                0x00000000004ad6f0                m68k_op_scc_8_aw
                0x0000000000477ea8                m68k_op_cmpa_16_pcdi
                0x00000000004728d8                m68k_op_move_32_pd_pi
                0x000000000045cf58                m68k_op_and_16_er_d
                0x000000000046dba0                m68k_op_sub_8_er_ai
                0x00000000004a5598                m68k_op_subi_16_pd
                0x000000000047e854                m68k_op_sub_8_re_ix
                0x0000000000492cfc                m68k_op_divs_16_di
                0x000000000046a6cc                m68k_op_not_8_pd
                0x000000000046caa0                m68k_op_and_8_re_ai
                0x000000000045ed28                m68k_op_exg_32_da
                0x000000000046cb44                m68k_op_addq_8_pd7
                0x00000000004787e0                m68k_op_movea_16_aw
                0x00000000004b0508                m68k_op_move_8_ai_i
                0x00000000004a62ec                m68k_op_ori_16_ix
                0x000000000046a070                m68k_op_sf_8_pd
                0x000000000046485c                m68k_op_not_32_pi
                0x000000000047df94                m68k_op_eor_16_ix
                0x00000000004ab494                m68k_op_cmpi_8_pd7
                0x0000000000480040                m68k_op_move_16_ix_aw
                0x000000000047a670                m68k_op_bfchg_32_al
                0x00000000004963d0                m68k_op_addi_8_pi7
                0x0000000000499700                m68k_op_ori_8_d
                0x00000000004700e8                m68k_op_move_8_pd7_pd7
                0x000000000045de74                m68k_op_blt_8
                0x0000000000475440                m68k_op_movea_16_pi
                0x0000000000464228                m68k_op_subq_32_ai
                0x000000000047a420                m68k_op_cas_16_al
                0x000000000047a538                m68k_op_bfset_32_di
                0x000000000047a0f8                m68k_op_mull_32_ix
                0x000000000047a398                m68k_op_chk_32_al
                0x0000000000470370                m68k_op_addx_8_mm_axy7
                0x000000000047fcf0                m68k_op_roxl_16_ix
                0x000000000047a608                m68k_op_bfexts_32_pcdi
                0x000000000047f314                m68k_op_sf_8_ix
                0x000000000046c6c8                m68k_op_bchg_8_r_pi
                0x000000000047a298                m68k_op_divl_32_ai
                0x000000000045dd0c                m68k_op_bvs_8
                0x0000000000464908                m68k_op_not_32_ai
                0x00000000004a10e4                m68k_op_link_16
                0x00000000004b4640                m68k_op_bcc_16
                0x000000000048f330                m68k_op_muls_16_pcix
                0x00000000004a31b8                m68k_op_and_32_re_di
                0x00000000004b873c                m68k_op_stop
                0x000000000048988c                m68k_op_move_8_pd7_al
                0x000000000047a200                m68k_op_move_16_frc_ix
                0x000000000047a2c0                m68k_op_cmpi_16_pcdi
                0x00000000004796d0                m68k_op_add_16_er_di
                0x0000000000466e70                m68k_op_lsl_16_pi
                0x00000000004ad768                m68k_op_scc_8_di
                0x0000000000469dd4                m68k_op_sls_8_pi
                0x00000000004806c4                m68k_op_sle_8_ix
                0x00000000004a7cfc                m68k_op_movem_16_er_di
                0x00000000004891d4                m68k_op_tst_32_al
                0x000000000047dcac                m68k_op_move_8_ix_pd7
                0x00000000004ae234                m68k_op_ori_8_pi7
                0x0000000000485200                m68k_op_addi_32_pd
                0x0000000000487044                m68k_op_lsr_16_al
                0x0000000000464044                m68k_op_unlk_32_a7
                0x0000000000470230                m68k_op_move_8_pi7_pd7
                0x0000000000486ba8                m68k_op_ror_16_al
                0x00000000004a09a4                m68k_op_move_16_aw_d
                0x00000000004b0470                m68k_op_move_8_pi7_i
                0x000000000047571c                m68k_op_move_16_d_pi
                0x000000000047a638                m68k_op_bfexts_32_d
                0x000000000046926c                m68k_op_smi_8_pi7
                0x0000000000479f18                m68k_op_trapgt_32
                0x00000000004a938c                m68k_op_eori_16_pi
                0x00000000004773c4                m68k_op_or_32_er_di
                0x0000000000484bec                m68k_op_andi_32_pd
                0x00000000004672e4                m68k_op_eor_16_pi
                0x0000000000474fb8                m68k_op_tst_16_pi
                0x00000000004a9e84                m68k_op_andi_16_pd
                0x0000000000497dac                m68k_op_movem_16_er_pcdi
                0x000000000046acb4                m68k_op_neg_8_pd7
                0x000000000046f458                m68k_op_move_16_pd_ai
                0x00000000004ae158                m68k_op_ori_8_pd
                0x0000000000479f60                m68k_op_trapcs_32
                0x00000000004a1ba0                m68k_op_divu_16_i
                0x00000000004973d4                m68k_op_move_16_di_pcix
                0x000000000046e180                m68k_op_move_8_pi_ai
                0x0000000000484748                m68k_op_cmpi_32_ai
                0x000000000048b2c4                m68k_op_move_8_pd7_ix
                0x0000000000482848                m68k_op_subi_32_pi
                0x0000000000471bc8                m68k_op_or_32_er_pd
                0x00000000004811b4                m68k_op_move_32_pi_pcix
                0x000000000046c810                m68k_op_and_8_re_pd7
                0x000000000047f848                m68k_op_neg_16_ix
                0x000000000046ae60                m68k_op_neg_8_pi
                0x0000000000487e00                m68k_op_sls_8_al
                0x0000000000489030                m68k_op_move_32_al_pcix
                0x0000000000472be0                m68k_op_cmpa_32_pi
                0x000000000048e340                m68k_op_move_8_ix_ix
                0x0000000000473380                m68k_op_btst_8_r_pd
                0x000000000047a410                m68k_op_cas_32_pi
                0x000000000048d278                m68k_op_or_32_er_ix
                0x00000000004b28d0                m68k_op_bchg_8_r_aw
                0x0000000000467758                m68k_op_asr_16_pd
                0x00000000004918e0                m68k_op_trapv
                0x000000000047a378                m68k_op_chk2cmp2_8_pcdi
                0x000000000047d89c                m68k_op_spl_8_ix
                0x000000000047a640                m68k_op_bfclr_32_al
                0x00000000004b5360                m68k_op_and_8_er_pcdi
                0x0000000000494458                m68k_op_divs_16_pcdi
                0x00000000004ad214                m68k_op_svs_8_di
                0x000000000045cfb8                m68k_op_and_32_er_d
                0x00000000004ab92c                m68k_op_btst_8_s_pi
                0x000000000045ef40                m68k_op_lsr_16_s
                0x000000000047835c                m68k_op_sub_16_er_aw
                0x0000000000478720                m68k_op_cmpa_16_aw
                0x000000000045e514                m68k_op_bclr_32_r_d
                0x000000000048e27c                m68k_op_and_16_er_al
                0x000000000047a480                m68k_op_cas_8_pd
                0x000000000047e94c                m68k_op_and_16_re_ix
                0x00000000004968d0                m68k_op_move_32_di_pcix
                0x000000000047a1b0                m68k_op_moves_8_di
                0x00000000004b567c                m68k_op_or_32_er_pcdi
                0x000000000048b228                m68k_op_suba_32_al
                0x0000000000475930                m68k_op_and_16_er_pi
                0x000000000047a000                m68k_op_traplt
                0x000000000049eebc                m68k_op_movem_16_re_pd
                0x00000000004b1d3c                m68k_op_bclr_8_s_pd
                0x00000000004805c0                m68k_op_move_16_ix_pd
                0x00000000004afd0c                m68k_op_move_8_di_pd7
                0x00000000004b6794                m68k_op_move_32_aw_pcdi
                0x0000000000463a60                m68k_op_move_16_pd_a
                0x00000000004869fc                m68k_op_roxr_16_al
                0x00000000004ae8bc                m68k_op_negx_8_di
                0x000000000048bdc0                m68k_op_move_32_ai_al
                0x0000000000481be8                m68k_op_move_16_tos_pd
                0x0000000000470b34                m68k_op_move_8_d_pi7
                0x0000000000466600                m68k_op_or_16_re_pi
                0x00000000004935d4                m68k_op_divu_16_ai
                0x000000000045e38c                m68k_op_blt_32
                0x000000000046ef1c                m68k_op_muls_16_ai
                0x0000000000463f70                m68k_op_unlk_32
                0x00000000004985f0                m68k_op_add_32_er_aw
                0x00000000004a26a4                m68k_op_chk_16_i
                0x000000000046d614                m68k_op_jsr_32_ai
                0x000000000045ebf0                m68k_op_eor_16_d
                0x000000000047a1e8                m68k_op_movec_32_cr
                0x0000000000474c88                m68k_op_move_16_pd_pd
                0x00000000004af774                m68k_op_move_8_aw_d
                0x00000000004aa438                m68k_op_addi_16_al
                0x00000000004ae4ac                m68k_op_or_8_re_aw
                0x00000000004620d8                m68k_op_swap_32
                0x000000000046562c                m68k_op_add_32_re_ai
                0x0000000000485604                m68k_op_add_32_re_al
                0x000000000049833c                m68k_op_move_8_di_pcix
                0x0000000000474884                m68k_op_sub_16_er_pd
                0x000000000047a250                m68k_op_divl_32_i
                0x000000000048e7b4                m68k_op_move_32_d_ix
                0x0000000000470cf0                m68k_op_btst_8_r_pi7
                0x0000000000490f98                m68k_op_mulu_16_ix
                0x000000000046aab4                m68k_op_negx_8_pi7
                0x000000000046c264                m68k_op_bclr_8_r_pd
                0x0000000000484670                m68k_op_cmpi_32_pi
                0x0000000000466098                m68k_op_rol_16_pd
                0x0000000000460298                m68k_op_ror_16_r
                0x00000000004ae7fc                m68k_op_negx_8_aw
                0x00000000004692a8                m68k_op_smi_8_pi
                0x000000000046040c                m68k_op_rol_8_s
                0x00000000004915c4                m68k_op_or_16_er_ix
                0x00000000004adc24                m68k_op_st_8_di
                0x00000000004b372c                m68k_op_dbf_16
                0x000000000046449c                m68k_op_sub_32_re_ai
                0x0000000000488eb0                m68k_op_move_16_al_pcdi
                0x00000000004824d4                m68k_op_move_32_d_pcix
                0x000000000046bff0                m68k_op_bset_8_r_pi7
                0x0000000000466228                m68k_op_rol_16_ai
                0x00000000004b4d30                m68k_op_dbvc_16
                0x0000000000498254                m68k_op_move_8_aw_pcix
                0x00000000004652ec                m68k_op_addq_32_pi
                0x000000000047a030                m68k_op_trapeq
                0x000000000047d084                m68k_op_move_16_ix_a
                0x0000000000479f98                m68k_op_trapge_16
                0x000000000045d5f4                m68k_op_asl_16_s
                0x00000000004a3f0c                m68k_op_cmpi_16_al
                0x000000000049a26c                m68k_op_movem_32_er_al
                0x00000000004932d8                m68k_op_divs_16_pi
                0x000000000046add8                m68k_op_neg_8_pi7
                0x0000000000478b90                m68k_op_and_16_er_aw
                0x000000000048a2b0                m68k_op_move_8_pd_pcix
                0x00000000004b8154                m68k_op_tst_8_aw
                0x0000000000473410                m68k_op_and_8_er_pd
                0x00000000004999f4                m68k_op_or_8_er_i
                0x000000000047a338                m68k_op_chk2cmp2_16_pcix
                0x000000000047f228                m68k_op_and_32_re_ix
                0x00000000004895bc                m68k_op_cpbcc_32
                0x000000000045fae4                m68k_op_nbcd_8_d
                0x000000000047a578                m68k_op_bfins_32_d
                0x00000000004adcb4                m68k_op_ori_8_al
                0x00000000004b05b0                m68k_op_eori_8_al
                0x000000000046f174                m68k_op_add_16_er_ai
                0x000000000047e4b4                m68k_op_st_8_ix
                0x0000000000479f50                m68k_op_trapeq_32
                0x000000000045fc68                m68k_op_neg_32_d
                0x000000000047adcc                m68k_op_1111
                0x00000000004b2eac                m68k_op_andi_8_pd
                0x000000000047a5d8                m68k_op_bfextu_32_aw
                0x0000000000465178                m68k_op_and_32_re_ai
                0x000000000047a138                m68k_op_moves_32_ix
                0x000000000046bdc4                m68k_op_clr_8_pi
                0x0000000000491db4                m68k_op_move_16_pi_ix
                0x00000000004b4368                m68k_op_bvc_16
                0x0000000000468774                m68k_op_sub_8_re_pd7
                0x000000000047a108                m68k_op_mull_32_pd
                0x000000000047a040                m68k_op_trapcs
                0x0000000000465a30                m68k_op_sub_16_re_pi
                0x000000000047ca1c                m68k_op_shi_8_ix
                0x00000000004a63fc                m68k_op_ori_16_di
                0x0000000000470448                m68k_op_addx_8_mm_ay7
                0x00000000004b5730                m68k_op_move_8_al_pcdi
                0x0000000000492194                m68k_op_divu_16_aw
                0x000000000045f1d4                m68k_op_lsr_32_r
                0x00000000004a0a4c                m68k_op_move_16_ix_i
                0x0000000000478168                m68k_op_move_16_pi_pcdi
                0x00000000004a35c0                m68k_op_addi_32_aw
                0x0000000000464d34                m68k_op_neg_32_ai
                0x00000000004804c4                m68k_op_lsl_16_ix
                0x00000000004ae580                m68k_op_or_8_re_di
                0x000000000048b558                m68k_op_cmpa_32_al
                0x00000000004b3b28                m68k_op_move_8_di_pcdi
                0x000000000045cb58                m68k_op_addq_8_d
                0x0000000000487998                m68k_op_slt_8_al
                0x0000000000465ef8                m68k_op_roxr_16_pi
                0x00000000004a433c                m68k_op_move_16_di_ix
                0x000000000048592c                m68k_op_subi_32_ix
                0x000000000048d980                m68k_op_adda_16_al
                0x00000000004ac1bc                m68k_op_subi_8_aw
                0x00000000004b866c                m68k_op_move_8_pi_aw
                0x00000000004a6ae4                m68k_op_negx_16_aw
                0x00000000004a86cc                m68k_op_movem_16_er_pi
                0x000000000045ded4                m68k_op_bgt_8
                0x000000000048d0f4                m68k_op_suba_16_al
                0x000000000046dd90                m68k_op_cmp_8_ai
                0x000000000049ce68                m68k_op_movem_32_re_ai
                0x0000000000490338                m68k_op_chk_16_pi
                0x0000000000473d30                m68k_op_move_8_ai_pd
                0x00000000004b1068                m68k_op_bset_8_s_al
                0x0000000000464c8c                m68k_op_neg_32_pi
                0x000000000046547c                m68k_op_add_32_re_pd
                0x00000000004b0fbc                m68k_op_clr_8_di
                0x0000000000468d0c                m68k_op_sgt_8_pd7
                0x000000000045feec                m68k_op_not_32_d
                0x00000000004a548c                m68k_op_subi_16_di
                0x00000000004b47a8                m68k_op_dblt_16
                0x000000000047053c                m68k_op_abcd_8_mm_axy7
                0x000000000045f4e8                m68k_op_lsl_16_r
                0x000000000045f900                m68k_op_movea_32_a
                0x0000000000463c3c                m68k_op_move_16_pi_d
                0x0000000000478680                m68k_op_mulu_16_aw
                0x00000000004aaef0                m68k_op_cmpi_8_aw
                0x00000000004b44d4                m68k_op_bne_16
                0x000000000047a1d0                m68k_op_moves_8_pi
                0x00000000004b1b98                m68k_op_bclr_8_s_di
                0x000000000047a0a8                m68k_op_pack_16_mm
                0x0000000000460cf0                m68k_op_roxl_8_s
                0x00000000004af0f8                m68k_op_move_8_aw_al
                0x0000000000463e04                m68k_op_clr_16_pd
                0x00000000004a3d3c                m68k_op_move_16_aw_al
                0x0000000000471328                m68k_op_tst_8_pi
                0x0000000000490b74                m68k_op_and_16_er_pcix
                0x000000000045daf8                m68k_op_bls_8
                0x000000000047a150                m68k_op_moves_32_pi
                0x000000000047a4d8                m68k_op_bkpt
                0x000000000045ca78                m68k_op_adda_16_a
                0x00000000004b57f8                m68k_op_move_8_d_pcdi
                0x0000000000460160                m68k_op_ror_32_s
                0x00000000004a297c                m68k_op_btst_8_r_i
                0x000000000048d198                m68k_op_cmp_8_ix
                0x00000000004905a4                m68k_op_chk_16_ai
                0x000000000047ef44                m68k_op_not_8_ix
                0x00000000004b4420                m68k_op_beq_16
                0x0000000000498df8                m68k_op_jmp_32_pcdi
                0x0000000000477bd4                m68k_op_move_16_toc_pcdi
                0x000000000048ed94                m68k_op_move_16_ix_pcix
                0x000000000048b0a0                m68k_op_tst_32_ix
                0x00000000004ad4d0                m68k_op_sne_8_aw
                0x00000000004afee8                m68k_op_move_8_di_pi7
                0x000000000046d0dc                m68k_op_add_8_re_pi
                0x00000000004834e8                m68k_op_move_16_frs_al
                0x0000000000482264                m68k_op_and_32_er_pcix
                0x0000000000481298                m68k_op_move_16_tos_d
                0x0000000000487d20                m68k_op_scs_8_al
                0x00000000004b00c0                m68k_op_move_8_di_ai
                0x000000000046d720                m68k_op_bsr_8
                0x00000000004974e8                m68k_op_move_16_tos_pcdi
                0x000000000048a104                m68k_op_movea_32_al
                0x000000000047f3b0                m68k_op_move_8_ix_pi
                0x0000000000479f78                m68k_op_traphi_32
                0x0000000000461c0c                m68k_op_suba_16_d
                0x00000000004a3950                m68k_op_adda_16_i
                0x0000000000499270                m68k_op_pea_32_aw
                0x0000000000477df0                m68k_op_and_16_er_pcdi
                0x000000000046bbbc                m68k_op_eor_8_ai
                0x00000000004670ac                m68k_op_lsr_16_pi
                0x0000000000461650                m68k_op_svs_8_d
                0x000000000049a098                m68k_op_move16_32
                0x000000000046049c                m68k_op_rol_16_s
                0x00000000004839e0                m68k_op_move_32_al_d
                0x000000000047a3d8                m68k_op_cas2_32
                0x0000000000484008                m68k_op_eori_32_al
                0x0000000000461818                m68k_op_slt_8_d
                0x00000000004848c0                m68k_op_cmpa_32_i
                0x0000000000461890                m68k_op_sgt_8_d
                0x00000000004b3654                m68k_op_sub_8_er_pcdi
                0x000000000047ccb4                m68k_op_negx_32_ix
                0x000000000046c4f8                m68k_op_bchg_8_r_pd7
                0x00000000004aeb14                m68k_op_nbcd_8_aw
                0x000000000045eaf8                m68k_op_cmpa_32_a
                0x0000000000487c48                m68k_op_seq_8_al
                0x0000000000480230                m68k_op_asl_16_ix
                0x0000000000479f00                m68k_op_tst_8_pcix
                0x000000000046a400                m68k_op_or_8_re_pi7
                0x00000000004b5070                m68k_op_dbcs_16
                0x0000000000482758                m68k_op_subi_32_pd
                0x0000000000466d10                m68k_op_neg_16_ai
                0x00000000004a4a18                m68k_op_cmpi_16_pd
                0x0000000000461a0c                m68k_op_sub_16_er_d
                0x00000000004aaab0                m68k_op_add_16_re_aw
                0x000000000045d988                m68k_op_asl_32_r
                0x00000000004a952c                m68k_op_eor_16_aw
                0x00000000004a2bcc                m68k_op_bclr_32_s_d
                0x0000000000479fe8                m68k_op_traphi_16
                0x0000000000473784                m68k_op_sbcd_8_mm
                0x000000000046eac4                m68k_op_adda_32_ai
                0x000000000046a4b4                m68k_op_or_8_re_pi
                0x000000000046f8d8                m68k_op_move_8_d_pd7
                0x000000000047a270                m68k_op_divl_32_aw
                0x000000000047a5b0                m68k_op_bfffo_32_ai
                0x000000000046c310                m68k_op_bclr_8_r_pi7
                0x000000000047f028                m68k_op_add_16_re_ix
                0x00000000004aa824                m68k_op_addi_16_pd
                0x00000000004b2030                m68k_op_bclr_8_r_aw
                0x0000000000469fec                m68k_op_shi_8_ai
                0x00000000004aba88                m68k_op_btst_8_s_ai
                0x0000000000477c74                m68k_op_move_16_ai_pcdi
                0x00000000004a14bc                m68k_op_jmp_32_aw
                0x00000000004a25f8                m68k_op_clr_16_di
                0x0000000000473590                m68k_op_subx_8_mm
                0x0000000000483158                m68k_op_or_32_re_al
                0x000000000045cbcc                m68k_op_addq_16_d
                0x0000000000476fa4                m68k_op_or_8_er_di
                0x0000000000473698                m68k_op_subx_8_mm_ax7
                0x0000000000471c6c                m68k_op_movea_32_pd
                0x000000000046af90                m68k_op_nbcd_8_pd7
                0x0000000000479ec8                m68k_op_tst_32_pcdi
                0x0000000000466990                m68k_op_negx_16_pd
                0x000000000047c034                m68k_op_or_8_re_ix
                0x0000000000464630                m68k_op_or_32_re_pi
                0x000000000047ff58                m68k_op_not_16_ix
 .text          0x00000000004b9d60     0x1b20 cpu/musashi/m68kcpu.o
                0x00000000004ba3fc                m68k_cycles_run
                0x00000000004ba430                m68k_modify_timeslice
                0x00000000004ba0ec                m68k_set_pc_changed_callback
                0x00000000004ba49c                m68k_context_size
                0x00000000004ba05c                m68k_set_reset_instr_callback
                0x00000000004badc8                m68k_execute
                0x00000000004ba134                m68k_set_instr_hook_callback
                0x00000000004ba038                m68k_set_bkpt_ack_callback
                0x00000000004ba0c8                m68k_set_tas_instr_callback
                0x00000000004ba110                m68k_set_fc_callback
                0x00000000004ba158                m68k_set_cpu_type
                0x00000000004ba730                m68k_init
                0x00000000004bb37c                m68k_set_irq
                0x00000000004ba4a4                m68k_get_context
                0x00000000004ba420                m68k_cycles_remaining
                0x00000000004b9dc8                m68k_get_reg
                0x00000000004ba460                m68k_end_timeslice
                0x00000000004ba080                m68k_set_cmpild_instr_callback
                0x00000000004ba0a4                m68k_set_rte_instr_callback
                0x00000000004ba014                m68k_set_int_ack_callback
                0x00000000004ba484                m68k_pulse_halt
                0x00000000004ba640                m68k_pulse_reset
                0x00000000004ba7f4                m68k_set_reg
                0x00000000004ba62c                m68k_set_context
 .text          0x00000000004bb880    0x72d10 cpu/fame/famec.o
                0x00000000004bb880                fm68k_get_pc
                0x00000000004bb888                fm68k_would_interrupt
                0x00000000004bbafc                fm68k_emulate
                0x000000000052e4b8                fm68k_reset
                0x000000000052e568                fm68k_init
 .text          0x000000000052e590     0x9e50 cpu/cz80/cz80.o
                0x000000000052e884                Cz80_Set_OUTPort
                0x000000000052ed6c                Cz80_Exec
                0x000000000052e598                Cz80_Get_Reg
                0x000000000052e87c                Cz80_Set_INPort
                0x000000000052e86c                Cz80_Set_ReadB
                0x000000000052e674                Cz80_Set_Reg
                0x000000000052e874                Cz80_Set_WriteB
                0x000000000052e88c                Cz80_Set_IRQ_Callback
                0x000000000052e760                Cz80_Set_Fetch
                0x000000000052e8d0                Cz80_Init
                0x0000000000538120                Cz80_Set_IRQ
                0x00000000005380e0                Cz80_Reset
 .text          0x00000000005383e0     0x1070 Pico/Debug.o
                0x00000000005383e0                dumpPCandExit
                0x00000000005387d4                CM_compareRun
 .text          0x0000000000539450     0xf700 cpu/musashi/m68kdasm.o
                0x000000000053c730                m68k_disassemble
                0x000000000053b2c0                m68k_is_valid_instruction
                0x000000000053c94c                m68ki_disassemble_quick
                0x000000000053cb48                m68k_disassemble_raw
 .text          0x0000000000548b50      0x220 /opt/mipsel-linux-uclibc/usr/lib/libm.a(s_floor.os)
                0x0000000000548b50                floor
                0x0000000000548b50                __GI_floor
 .text          0x0000000000548d70      0x130 /opt/mipsel-linux-uclibc/usr/lib/libm.a(s_sin.os)
                0x0000000000548d70                __GI_sin
                0x0000000000548d70                sin
 .text          0x0000000000548ea0       0x20 /opt/mipsel-linux-uclibc/usr/lib/libm.a(w_log.os)
                0x0000000000548ea0                log
                0x0000000000548ea0                __GI_log
 .text          0x0000000000548ec0       0x20 /opt/mipsel-linux-uclibc/usr/lib/libm.a(w_pow.os)
                0x0000000000548ec0                __GI_pow
                0x0000000000548ec0                pow
 .text          0x0000000000548ee0      0x860 /opt/mipsel-linux-uclibc/usr/lib/libm.a(e_log.os)
                0x0000000000548ee0                __ieee754_log
 .text          0x0000000000549740     0x1530 /opt/mipsel-linux-uclibc/usr/lib/libm.a(e_pow.os)
                0x0000000000549740                __ieee754_pow
 .text          0x000000000054ac70      0x8f0 /opt/mipsel-linux-uclibc/usr/lib/libm.a(e_rem_pio2.os)
                0x000000000054ac70                __ieee754_rem_pio2
 .text          0x000000000054b560      0x2a0 /opt/mipsel-linux-uclibc/usr/lib/libm.a(e_sqrt.os)
                0x000000000054b560                __ieee754_sqrt
 .text          0x000000000054b800      0x440 /opt/mipsel-linux-uclibc/usr/lib/libm.a(k_cos.os)
                0x000000000054b800                __kernel_cos
 .text          0x000000000054bc40      0xdd0 /opt/mipsel-linux-uclibc/usr/lib/libm.a(k_rem_pio2.os)
                0x000000000054bc40                __kernel_rem_pio2
 .text          0x000000000054ca10      0x360 /opt/mipsel-linux-uclibc/usr/lib/libm.a(k_sin.os)
                0x000000000054ca10                __kernel_sin
 .text          0x000000000054cd70       0x20 /opt/mipsel-linux-uclibc/usr/lib/libm.a(s_fabs.os)
                0x000000000054cd70                fabs
                0x000000000054cd70                __GI_fabs
 .text          0x000000000054cd90      0x1f0 /opt/mipsel-linux-uclibc/usr/lib/libm.a(s_scalbn.os)
                0x000000000054cd90                __GI_scalbn
                0x000000000054cd90                scalbn
 .text          0x000000000054cf80       0x30 /opt/mipsel-linux-uclibc/usr/lib/libm.a(s_copysign.os)
                0x000000000054cf80                copysign
                0x000000000054cf80                __GI_copysign
 .text          0x000000000054cfb0     0x12e0 /opt/mipsel-linux-uclibc/usr/lib/libpng.a(libpng12_la-png.o)
                0x000000000054d4a0                png_zfree
                0x000000000054cff8                png_get_header_ver
                0x000000000054d300                png_convert_to_rfc1123
                0x000000000054cfe0                png_get_copyright
                0x000000000054dfb0                png_check_sig
                0x000000000054d0fc                png_reset_zstream
                0x000000000054cfcc                png_init_io
                0x000000000054dce4                png_check_cHRM_fixed
                0x000000000054d4b8                png_free_data
                0x000000000054d120                png_handle_as_unknown
                0x000000000054d094                png_data_freer
                0x000000000054e0cc                png_info_init
                0x000000000054e20c                png_create_info_struct
                0x000000000054d010                png_access_version_number
                0x000000000054e140                png_destroy_info_struct
                0x000000000054dc24                png_reset_crc
                0x000000000054dc6c                png_set_sig_bytes
                0x000000000054db98                png_calculate_crc
                0x000000000054d1d0                png_sig_cmp
                0x000000000054d004                png_get_header_version
                0x000000000054daec                png_info_init_3
                0x000000000054e02c                png_info_destroy
                0x000000000054cfec                png_get_libpng_ver
                0x000000000054d018                png_mmx_support
                0x000000000054d020                png_64bit_product
                0x000000000054cfb0                png_get_io_ptr
                0x000000000054d26c                png_zalloc
 .text          0x000000000054e290     0x1120 /opt/mipsel-linux-uclibc/usr/lib/libpng.a(libpng12_la-pngget.o)
                0x000000000054f100                png_get_compression_buffer_size
                0x000000000054efdc                png_get_tRNS
                0x000000000054eb08                png_get_sRGB
                0x000000000054f11c                png_get_asm_flags
                0x000000000054e2d8                png_get_rows
                0x000000000054ea34                png_get_gAMA
                0x000000000054e744                png_get_cHRM
                0x000000000054f0e4                png_get_user_chunk_ptr
                0x000000000054ef98                png_get_tIME
                0x000000000054e6e0                png_get_signature
                0x000000000054e440                png_get_y_pixels_per_meter
                0x000000000054e290                png_get_valid
                0x000000000054ef30                png_get_text
                0x000000000054e4e4                png_get_pixel_aspect_ratio
                0x000000000054edc8                png_get_sCAL
                0x000000000054f0c8                png_get_rgb_to_gray_status
                0x000000000054e62c                png_get_x_offset_pixels
                0x000000000054f12c                png_get_mmx_flagmask
                0x000000000054ee28                png_get_pHYs
                0x000000000054e320                png_get_image_height
                0x000000000054f144                png_get_mmx_rowbytes_threshold
                0x000000000054e38c                png_get_filter_type
                0x000000000054e2fc                png_get_image_width
                0x000000000054e488                png_get_pixels_per_meter
                0x000000000054e930                png_get_cHRM_fixed
                0x000000000054eea0                png_get_PLTE
                0x000000000054e674                png_get_y_offset_pixels
                0x000000000054ece4                png_get_pCAL
                0x000000000054f090                png_get_unknown_chunks
                0x000000000054e3b0                png_get_interlace_type
                0x000000000054ec18                png_get_hIST
                0x000000000054f168                png_get_user_height_max
                0x000000000054f124                png_get_asm_flagmask
                0x000000000054e700                png_get_bKGD
                0x000000000054e5e4                png_get_y_offset_microns
                0x000000000054ec64                png_get_oFFs
                0x000000000054f13c                png_get_mmx_bitdepth_threshold
                0x000000000054eb54                png_get_iCCP
                0x000000000054e344                png_get_bit_depth
                0x000000000054e3d4                png_get_compression_type
                0x000000000054e6bc                png_get_channels
                0x000000000054e3f8                png_get_x_pixels_per_meter
                0x000000000054eeec                png_get_sBIT
                0x000000000054e368                png_get_color_type
                0x000000000054f14c                png_get_user_width_max
                0x000000000054e2b4                png_get_rowbytes
                0x000000000054e59c                png_get_x_offset_microns
                0x000000000054f184                png_get_IHDR
                0x000000000054eabc                png_get_gAMA_fixed
                0x000000000054ebe0                png_get_sPLT
 .text          0x000000000054f3b0     0x28c0 /opt/mipsel-linux-uclibc/usr/lib/libpng.a(libpng12_la-pngread.o)
                0x00000000005517b8                png_create_read_struct
                0x0000000000551380                png_read_init
                0x000000000054f3b0                png_set_read_status_fn
                0x000000000054feb0                png_read_row
                0x0000000000550f2c                png_read_init_3
                0x00000000005507e8                png_read_update_info
                0x0000000000551394                png_create_read_struct_2
                0x000000000054fe78                png_start_read_image
                0x000000000054f3c4                png_read_destroy
                0x00000000005511f0                png_read_init_2
                0x00000000005506c4                png_read_rows
                0x000000000054f99c                png_read_end
                0x00000000005505f4                png_read_image
                0x00000000005517e4                png_read_png
                0x00000000005508a0                png_read_info
                0x000000000054f844                png_destroy_read_struct
 .text          0x0000000000551c70      0x140 /opt/mipsel-linux-uclibc/usr/lib/libpng.a(libpng12_la-pngrio.o)
                0x0000000000551d7c                png_read_data
                0x0000000000551d00                png_default_read_data
                0x0000000000551c70                png_set_read_fn
 .text          0x0000000000551db0     0x8610 /opt/mipsel-linux-uclibc/usr/lib/libpng.a(libpng12_la-pngrtran.o)
                0x0000000000551df0                png_set_gamma
                0x00000000005596d4                png_do_read_transformations
                0x0000000000551f28                png_set_expand
                0x0000000000552888                png_do_read_swap_alpha
                0x0000000000553fa0                png_do_expand_palette
                0x00000000005523f4                png_do_unpack
                0x0000000000554874                png_do_dither
                0x000000000055853c                png_set_rgb_to_gray_fixed
                0x0000000000555a64                png_init_read_transformations
                0x00000000005542f0                png_do_expand
                0x0000000000557008                png_do_background
                0x0000000000551db0                png_set_strip_16
                0x0000000000551fdc                png_set_tRNS_to_alpha
                0x0000000000551dd0                png_set_strip_alpha
                0x0000000000553a40                png_do_gamma
                0x0000000000554a20                png_do_read_intrapixel
                0x0000000000551f90                png_set_expand_gray_1_2_4_to_8
                0x0000000000554b44                png_build_gamma_table
                0x0000000000552048                png_read_transform_info
                0x0000000000552024                png_set_read_user_transform_fn
                0x0000000000552004                png_set_gray_to_rgb
                0x0000000000552584                png_do_unshift
                0x0000000000551fbc                png_set_gray_1_2_4_to_8
                0x0000000000558694                png_set_background
                0x0000000000551f5c                png_set_palette_to_rgb
                0x0000000000552804                png_do_chop
                0x000000000055945c                png_set_rgb_to_gray
                0x0000000000552f00                png_do_gray_to_rgb
                0x0000000000558778                png_set_crc_action
                0x000000000055315c                png_do_rgb_to_gray
                0x00000000005539ac                png_build_grayscale_palette
                0x0000000000552b18                png_do_read_filler
                0x00000000005588fc                png_set_dither
                0x00000000005529f4                png_do_read_invert_alpha
 .text          0x000000000055a3c0      0x400 /opt/mipsel-linux-uclibc/usr/lib/libpng.a(libpng12_la-pngmem.o)
                0x000000000055a4cc                png_malloc_default
                0x000000000055a3dc                png_get_mem_ptr
                0x000000000055a414                png_memcpy_check
                0x000000000055a4c0                png_destroy_struct
                0x000000000055a5bc                png_create_struct_2
                0x000000000055a6c0                png_malloc_warn
                0x000000000055a67c                png_free
                0x000000000055a4f8                png_malloc
                0x000000000055a45c                png_destroy_struct_2
                0x000000000055a3f8                png_memset_check
                0x000000000055a3c0                png_set_mem_fn
                0x000000000055a670                png_create_struct
                0x000000000055a430                png_free_default
 .text          0x000000000055a7c0     0x1400 /opt/mipsel-linux-uclibc/usr/lib/libpng.a(libpng12_la-pngerror.o)
                0x000000000055a7dc                png_get_error_ptr
                0x000000000055a7f8                png_set_strip_error_numbers
                0x000000000055a81c                png_warning
                0x000000000055abfc                png_error
                0x000000000055b0e8                png_chunk_error
                0x000000000055b380                png_chunk_warning
                0x000000000055a7c0                png_set_error_fn
 .text          0x000000000055bbc0     0x5ea0 /opt/mipsel-linux-uclibc/usr/lib/libpng.a(libpng12_la-pngrutil.o)
                0x000000000055dbd8                png_read_finish_row
                0x000000000055d818                png_read_chunk_header
                0x000000000055c784                png_do_read_interlace
                0x0000000000561868                png_handle_sBIT
                0x0000000000560ccc                png_handle_pHYs
                0x000000000055d14c                png_check_chunk_name
                0x000000000055bc30                png_get_uint_31
                0x00000000005615c0                png_handle_tRNS
                0x000000000055bbec                png_get_int_32
                0x00000000005602c8                png_handle_gAMA
                0x000000000055e3f8                png_handle_tEXt
                0x000000000055e9ec                png_handle_pCAL
                0x000000000055eecc                png_handle_hIST
                0x0000000000560058                png_handle_unknown
                0x000000000055c144                png_crc_error
                0x0000000000560550                png_handle_cHRM
                0x0000000000561014                png_handle_bKGD
                0x000000000055d794                png_crc_read
                0x000000000055d21c                png_decompress_chunk
                0x000000000055f8c8                png_handle_IEND
                0x000000000055f084                png_handle_sPLT
                0x000000000055e0f0                png_handle_zTXt
                0x000000000055f510                png_handle_iCCP
                0x000000000055bbc0                png_get_uint_32
                0x000000000055c220                png_read_filter_row
                0x000000000055fec0                png_handle_tIME
                0x0000000000560e70                png_handle_oFFs
                0x000000000055f958                png_handle_PLTE
                0x00000000005612c4                png_handle_sRGB
                0x000000000055cd6c                png_combine_row
                0x000000000055fc10                png_handle_IHDR
                0x000000000055e6a8                png_handle_sCAL
                0x000000000055d9bc                png_crc_finish
                0x000000000055bc18                png_get_uint_16
                0x000000000055bcb0                png_read_start_row
 .text          0x0000000000561a60      0xa50 /opt/mipsel-linux-uclibc/usr/lib/libpng.a(libpng12_la-pngtrans.o)
                0x0000000000561e08                png_do_swap
                0x0000000000561ef8                png_do_strip_filler
                0x00000000005623f4                png_get_user_transform_ptr
                0x0000000000562410                png_set_add_alpha
                0x0000000000562298                png_do_bgr
                0x0000000000561ba0                png_set_filler
                0x0000000000561ab4                png_set_packing
                0x0000000000561c90                png_do_invert
                0x00000000005623d8                png_set_user_transform_info
                0x0000000000561e64                png_do_packswap
                0x0000000000561b64                png_set_interlace_handling
                0x0000000000561c30                png_set_swap_alpha
                0x0000000000561b20                png_set_shift
                0x0000000000561c50                png_set_invert_alpha
                0x0000000000561a60                png_set_bgr
                0x0000000000561aec                png_set_packswap
                0x0000000000561c70                png_set_invert_mono
                0x0000000000561a80                png_set_swap
 .text          0x00000000005624b0     0x25d0 /opt/mipsel-linux-uclibc/usr/lib/libpng.a(libpng12_la-pngset.o)
                0x000000000056463c                png_set_pCAL
                0x00000000005624b0                png_set_cHRM
                0x0000000000562918                png_set_pHYs
                0x0000000000563b24                png_set_iCCP
                0x00000000005648d8                png_set_sRGB_gAMA_and_cHRM
                0x0000000000562da8                png_set_bKGD
                0x0000000000563218                png_set_hIST
                0x00000000005629bc                png_permit_empty_plte
                0x00000000005644f0                png_set_PLTE
                0x00000000005635e4                png_set_sPLT
                0x0000000000562a58                png_set_mmx_thresholds
                0x000000000056345c                png_set_gAMA
                0x0000000000563ce4                png_set_text
                0x0000000000563010                png_set_tRNS
                0x0000000000562af0                png_set_rows
                0x0000000000562d70                png_set_sBIT
                0x00000000005628d0                png_set_sCAL
                0x000000000056334c                png_set_gAMA_fixed
                0x0000000000562a04                png_set_read_user_chunk_fn
                0x0000000000562dfc                png_set_unknown_chunks
                0x0000000000562a78                png_set_compression_buffer_size
                0x0000000000562a44                png_set_asm_flags
                0x0000000000562a1c                png_set_invalid
                0x0000000000562b78                png_set_keep_unknown_chunks
                0x000000000056419c                png_set_cHRM_fixed
                0x0000000000563d3c                png_set_IHDR
                0x000000000056289c                png_set_oFFs
                0x0000000000562a60                png_set_user_limits
                0x0000000000562974                png_set_unknown_chunk_location
                0x00000000005629e8                png_permit_mng_features
                0x0000000000563860                png_set_text_2
                0x000000000056294c                png_set_sRGB
                0x0000000000562d1c                png_set_tIME
 .text          0x0000000000564a80       0xa0 /opt/mipsel-linux-uclibc/usr/bin/../lib/gcc/mipsel-linux-uclibc/4.3.3/libgcc.a(_fixunssfsi.o)
                0x0000000000564a80                __fixunssfsi
 .text          0x0000000000564b20       0xc0 /opt/mipsel-linux-uclibc/usr/bin/../lib/gcc/mipsel-linux-uclibc/4.3.3/libgcc.a(_fixunsdfsi.o)
                0x0000000000564b20                __fixunsdfsi
 .text          0x0000000000564be0      0x3a0 /opt/mipsel-linux-uclibc/usr/bin/../lib/gcc/mipsel-linux-uclibc/4.3.3/libgcc.a(_addsub_sf.o)
                0x0000000000564e28                __subsf3
                0x0000000000564ed4                __addsf3
 .text          0x0000000000564f80      0x210 /opt/mipsel-linux-uclibc/usr/bin/../lib/gcc/mipsel-linux-uclibc/4.3.3/libgcc.a(_mul_sf.o)
                0x0000000000564f80                __mulsf3
 .text          0x0000000000565190      0x190 /opt/mipsel-linux-uclibc/usr/bin/../lib/gcc/mipsel-linux-uclibc/4.3.3/libgcc.a(_div_sf.o)
                0x0000000000565190                __divsf3
 .text          0x0000000000565320       0xb0 /opt/mipsel-linux-uclibc/usr/bin/../lib/gcc/mipsel-linux-uclibc/4.3.3/libgcc.a(_ne_sf.o)
                0x0000000000565320                __nesf2
 .text          0x00000000005653d0       0xb0 /opt/mipsel-linux-uclibc/usr/bin/../lib/gcc/mipsel-linux-uclibc/4.3.3/libgcc.a(_ge_sf.o)
                0x00000000005653d0                __gesf2
 .text          0x0000000000565480       0xd0 /opt/mipsel-linux-uclibc/usr/bin/../lib/gcc/mipsel-linux-uclibc/4.3.3/libgcc.a(_si_to_sf.o)
                0x0000000000565480                __floatsisf
 .text          0x0000000000565550       0xe0 /opt/mipsel-linux-uclibc/usr/bin/../lib/gcc/mipsel-linux-uclibc/4.3.3/libgcc.a(_sf_to_si.o)
                0x0000000000565550                __fixsfsi
 .text          0x0000000000565630       0x70 /opt/mipsel-linux-uclibc/usr/bin/../lib/gcc/mipsel-linux-uclibc/4.3.3/libgcc.a(_sf_to_df.o)
                0x0000000000565630                __extendsfdf2
 .text          0x00000000005656a0        0x0 /opt/mipsel-linux-uclibc/usr/bin/../lib/gcc/mipsel-linux-uclibc/4.3.3/libgcc.a(_thenan_sf.o)
 .text          0x00000000005656a0       0xd0 /opt/mipsel-linux-uclibc/usr/bin/../lib/gcc/mipsel-linux-uclibc/4.3.3/libgcc.a(_usi_to_sf.o)
                0x00000000005656a0                __floatunsisf
 .text          0x0000000000565770      0x590 /opt/mipsel-linux-uclibc/usr/bin/../lib/gcc/mipsel-linux-uclibc/4.3.3/libgcc.a(_addsub_df.o)
                0x0000000000565b98                __subdf3
                0x0000000000565c4c                __adddf3
 .text          0x0000000000565d00      0x300 /opt/mipsel-linux-uclibc/usr/bin/../lib/gcc/mipsel-linux-uclibc/4.3.3/libgcc.a(_mul_df.o)
                0x0000000000565d00                __muldf3
 .text          0x0000000000566000      0x240 /opt/mipsel-linux-uclibc/usr/bin/../lib/gcc/mipsel-linux-uclibc/4.3.3/libgcc.a(_div_df.o)
                0x0000000000566000                __divdf3
 .text          0x0000000000566240       0xc0 /opt/mipsel-linux-uclibc/usr/bin/../lib/gcc/mipsel-linux-uclibc/4.3.3/libgcc.a(_eq_df.o)
                0x0000000000566240                __eqdf2
 .text          0x0000000000566300       0xc0 /opt/mipsel-linux-uclibc/usr/bin/../lib/gcc/mipsel-linux-uclibc/4.3.3/libgcc.a(_gt_df.o)
                0x0000000000566300                __gtdf2
 .text          0x00000000005663c0       0xc0 /opt/mipsel-linux-uclibc/usr/bin/../lib/gcc/mipsel-linux-uclibc/4.3.3/libgcc.a(_ge_df.o)
                0x00000000005663c0                __gedf2
 .text          0x0000000000566480       0xc0 /opt/mipsel-linux-uclibc/usr/bin/../lib/gcc/mipsel-linux-uclibc/4.3.3/libgcc.a(_lt_df.o)
                0x0000000000566480                __ltdf2
 .text          0x0000000000566540       0xc0 /opt/mipsel-linux-uclibc/usr/bin/../lib/gcc/mipsel-linux-uclibc/4.3.3/libgcc.a(_le_df.o)
                0x0000000000566540                __ledf2
 .text          0x0000000000566600      0x110 /opt/mipsel-linux-uclibc/usr/bin/../lib/gcc/mipsel-linux-uclibc/4.3.3/libgcc.a(_si_to_df.o)
                0x0000000000566600                __floatsidf
 .text          0x0000000000566710       0xf0 /opt/mipsel-linux-uclibc/usr/bin/../lib/gcc/mipsel-linux-uclibc/4.3.3/libgcc.a(_df_to_si.o)
                0x0000000000566710                __fixdfsi
 .text          0x0000000000566800       0x50 /opt/mipsel-linux-uclibc/usr/bin/../lib/gcc/mipsel-linux-uclibc/4.3.3/libgcc.a(_make_df.o)
                0x0000000000566800                __make_dp
 .text          0x0000000000566850       0x90 /opt/mipsel-linux-uclibc/usr/bin/../lib/gcc/mipsel-linux-uclibc/4.3.3/libgcc.a(_df_to_sf.o)
                0x0000000000566850                __truncdfsf2
 .text          0x00000000005668e0        0x0 /opt/mipsel-linux-uclibc/usr/bin/../lib/gcc/mipsel-linux-uclibc/4.3.3/libgcc.a(_thenan_df.o)
 .text          0x00000000005668e0      0x170 /opt/mipsel-linux-uclibc/usr/bin/../lib/gcc/mipsel-linux-uclibc/4.3.3/libgcc.a(_usi_to_df.o)
                0x00000000005668e0                __floatunsidf
 .text          0x0000000000566a50       0x50 /opt/mipsel-linux-uclibc/usr/bin/../lib/gcc/mipsel-linux-uclibc/4.3.3/libgcc.a(_lshrdi3.o)
                0x0000000000566a50                __lshrdi3
 .text          0x0000000000566aa0       0x50 /opt/mipsel-linux-uclibc/usr/bin/../lib/gcc/mipsel-linux-uclibc/4.3.3/libgcc.a(_ashldi3.o)
                0x0000000000566aa0                __ashldi3
 .text          0x0000000000566af0       0x40 /opt/mipsel-linux-uclibc/usr/bin/../lib/gcc/mipsel-linux-uclibc/4.3.3/libgcc.a(_ucmpdi2.o)
                0x0000000000566af0                __ucmpdi2
 .text          0x0000000000566b30       0x60 /opt/mipsel-linux-uclibc/usr/bin/../lib/gcc/mipsel-linux-uclibc/4.3.3/libgcc.a(_clzsi2.o)
                0x0000000000566b30                __clzsi2
 .text          0x0000000000566b90      0x140 /opt/mipsel-linux-uclibc/usr/bin/../lib/gcc/mipsel-linux-uclibc/4.3.3/libgcc.a(_pack_sf.o)
                0x0000000000566b90                __pack_f
 .text          0x0000000000566cd0       0xd0 /opt/mipsel-linux-uclibc/usr/bin/../lib/gcc/mipsel-linux-uclibc/4.3.3/libgcc.a(_unpack_sf.o)
                0x0000000000566cd0                __unpack_f
 .text          0x0000000000566da0      0x110 /opt/mipsel-linux-uclibc/usr/bin/../lib/gcc/mipsel-linux-uclibc/4.3.3/libgcc.a(_fpcmp_parts_sf.o)
                0x0000000000566da0                __fpcmp_parts_f
 .text          0x0000000000566eb0       0x50 /opt/mipsel-linux-uclibc/usr/bin/../lib/gcc/mipsel-linux-uclibc/4.3.3/libgcc.a(_make_sf.o)
                0x0000000000566eb0                __make_fp
 .text          0x0000000000566f00      0x290 /opt/mipsel-linux-uclibc/usr/bin/../lib/gcc/mipsel-linux-uclibc/4.3.3/libgcc.a(_pack_df.o)
                0x0000000000566f00                __pack_d
 .text          0x0000000000567190      0x100 /opt/mipsel-linux-uclibc/usr/bin/../lib/gcc/mipsel-linux-uclibc/4.3.3/libgcc.a(_unpack_df.o)
                0x0000000000567190                __unpack_d
 .text          0x0000000000567290      0x140 /opt/mipsel-linux-uclibc/usr/bin/../lib/gcc/mipsel-linux-uclibc/4.3.3/libgcc.a(_fpcmp_parts_df.o)
                0x0000000000567290                __fpcmp_parts_d
 .text          0x00000000005673d0        0x0 /opt/mipsel-linux-uclibc/usr/bin/../lib/gcc/mipsel-linux-uclibc/4.3.3/libgcc.a(_clz.o)
 .text          0x00000000005673d0       0x80 /opt/mipsel-linux-uclibc/usr/lib/libc.a(mmap.os)
                0x00000000005673d0                mmap
                0x00000000005673d0                __GI_mmap
 .text          0x0000000000567450       0x20 /opt/mipsel-linux-uclibc/usr/lib/libc.a(bsd-_setjmp.os)
                0x0000000000567450                _setjmp
 .text          0x0000000000567470       0x20 /opt/mipsel-linux-uclibc/usr/lib/libc.a(setjmp.os)
                0x0000000000567470                __sigsetjmp
 .text          0x0000000000567490       0x60 /opt/mipsel-linux-uclibc/usr/lib/libc.a(close.os)
                0x0000000000567490                close
                0x0000000000567490                __libc_close
                0x0000000000567490                __GI_close
 .text          0x00000000005674f0       0x60 /opt/mipsel-linux-uclibc/usr/lib/libc.a(dup.os)
                0x00000000005674f0                dup
 .text          0x0000000000567550      0x140 /opt/mipsel-linux-uclibc/usr/lib/libc.a(getcwd.os)
                0x0000000000567550                getcwd
                0x0000000000567550                __GI_getcwd
 .text          0x0000000000567690       0x60 /opt/mipsel-linux-uclibc/usr/lib/libc.a(geteuid.os)
                0x0000000000567690                __GI_geteuid
                0x0000000000567690                geteuid
 .text          0x00000000005676f0       0x20 /opt/mipsel-linux-uclibc/usr/lib/libc.a(getpagesize.os)
                0x00000000005676f0                getpagesize
                0x00000000005676f0                __getpagesize
                0x00000000005676f0                __GI_getpagesize
 .text          0x0000000000567710       0x60 /opt/mipsel-linux-uclibc/usr/lib/libc.a(gettimeofday.os)
                0x0000000000567710                gettimeofday
                0x0000000000567710                __GI_gettimeofday
 .text          0x0000000000567770       0x70 /opt/mipsel-linux-uclibc/usr/lib/libc.a(ioctl.os)
                0x0000000000567770                ioctl
                0x0000000000567770                __GI_ioctl
 .text          0x00000000005677e0       0x60 /opt/mipsel-linux-uclibc/usr/lib/libc.a(longjmp.os)
                0x00000000005677e0                _longjmp
                0x00000000005677e0                longjmp
                0x00000000005677e0                __libc_siglongjmp
                0x00000000005677e0                siglongjmp
                0x00000000005677e0                __libc_longjmp
 .text          0x0000000000567840       0x60 /opt/mipsel-linux-uclibc/usr/lib/libc.a(mkdir.os)
                0x0000000000567840                mkdir
                0x0000000000567840                __GI_mkdir
 .text          0x00000000005678a0       0x60 /opt/mipsel-linux-uclibc/usr/lib/libc.a(munmap.os)
                0x00000000005678a0                __GI_munmap
                0x00000000005678a0                munmap
 .text          0x0000000000567900       0xa0 /opt/mipsel-linux-uclibc/usr/lib/libc.a(open.os)
                0x0000000000567978                creat
                0x0000000000567900                open
                0x0000000000567978                __libc_creat
                0x0000000000567900                __GI___libc_open
                0x0000000000567900                __GI_open
                0x0000000000567900                __libc_open
 .text          0x00000000005679a0       0x60 /opt/mipsel-linux-uclibc/usr/lib/libc.a(read.os)
                0x00000000005679a0                read
                0x00000000005679a0                __GI_read
                0x00000000005679a0                __libc_read
 .text          0x0000000000567a00       0x90 /opt/mipsel-linux-uclibc/usr/lib/libc.a(sigprocmask.os)
                0x0000000000567a00                sigprocmask
                0x0000000000567a00                __GI_sigprocmask
 .text          0x0000000000567a90       0x90 /opt/mipsel-linux-uclibc/usr/lib/libc.a(__syscall_fcntl.os)
                0x0000000000567a90                __GI_fcntl
                0x0000000000567a90                fcntl
                0x0000000000567a90                __GI___libc_fcntl
                0x0000000000567a90                __libc_fcntl
 .text          0x0000000000567b20       0x60 /opt/mipsel-linux-uclibc/usr/lib/libc.a(write.os)
                0x0000000000567b20                __GI_write
                0x0000000000567b20                write
                0x0000000000567b20                __libc_write
 .text          0x0000000000567b80        0x0 /opt/mipsel-linux-uclibc/usr/lib/libc.a(__C_ctype_b.os)
 .text          0x0000000000567b80        0x0 /opt/mipsel-linux-uclibc/usr/lib/libc.a(__C_ctype_tolower.os)
 .text          0x0000000000567b80       0x30 /opt/mipsel-linux-uclibc/usr/lib/libc.a(alphasort.os)
                0x0000000000567b80                alphasort
 .text          0x0000000000567bb0       0xf0 /opt/mipsel-linux-uclibc/usr/lib/libc.a(closedir.os)
                0x0000000000567bb0                __GI_closedir
                0x0000000000567bb0                closedir
 .text          0x0000000000567ca0      0x180 /opt/mipsel-linux-uclibc/usr/lib/libc.a(opendir.os)
                0x0000000000567ca0                opendir
                0x0000000000567ca0                __GI_opendir
 .text          0x0000000000567e20      0x200 /opt/mipsel-linux-uclibc/usr/lib/libc.a(scandir.os)
                0x0000000000567e20                scandir
 .text          0x0000000000568020       0x20 /opt/mipsel-linux-uclibc/usr/lib/libc.a(__errno_location.os)
                0x0000000000568020                __errno_location
                0x0000000000568020                __GI___errno_location
 .text          0x0000000000568040      0x1e0 /opt/mipsel-linux-uclibc/usr/lib/libc.a(fclose.os)
                0x0000000000568040                fclose
                0x0000000000568040                __GI_fclose
 .text          0x0000000000568220       0x80 /opt/mipsel-linux-uclibc/usr/lib/libc.a(fdopen.os)
                0x0000000000568220                fdopen
                0x0000000000568220                __GI_fdopen
 .text          0x00000000005682a0       0x20 /opt/mipsel-linux-uclibc/usr/lib/libc.a(fopen.os)
                0x00000000005682a0                fopen
                0x00000000005682a0                __GI_fopen
 .text          0x00000000005682c0       0x40 /opt/mipsel-linux-uclibc/usr/lib/libc.a(fseeko.os)
                0x00000000005682c0                fseeko
                0x00000000005682c0                fseek
                0x00000000005682c0                __GI_fseek
 .text          0x0000000000568300       0x60 /opt/mipsel-linux-uclibc/usr/lib/libc.a(ftello.os)
                0x0000000000568300                __GI_ftell
                0x0000000000568300                ftello
                0x0000000000568300                ftell
 .text          0x0000000000568360       0x50 /opt/mipsel-linux-uclibc/usr/lib/libc.a(perror.os)
                0x0000000000568360                __GI_perror
                0x0000000000568360                perror
 .text          0x00000000005683b0       0xf0 /opt/mipsel-linux-uclibc/usr/lib/libc.a(puts.os)
                0x00000000005683b0                puts
 .text          0x00000000005684a0      0x1b0 /opt/mipsel-linux-uclibc/usr/lib/libc.a(setvbuf.os)
                0x00000000005684a0                __GI_setvbuf
                0x00000000005684a0                setvbuf
 .text          0x0000000000568650       0x60 /opt/mipsel-linux-uclibc/usr/lib/libc.a(printf.os)
                0x0000000000568650                __GI_printf
                0x0000000000568650                printf
 .text          0x00000000005686b0       0x20 /opt/mipsel-linux-uclibc/usr/lib/libc.a(vsprintf.os)
                0x00000000005686b0                vsprintf
 .text          0x00000000005686d0       0x50 /opt/mipsel-linux-uclibc/usr/lib/libc.a(fprintf.os)
                0x00000000005686d0                fprintf
                0x00000000005686d0                __GI_fprintf
 .text          0x0000000000568720       0x40 /opt/mipsel-linux-uclibc/usr/lib/libc.a(snprintf.os)
                0x0000000000568720                snprintf
                0x0000000000568720                __GI_snprintf
 .text          0x0000000000568760       0x50 /opt/mipsel-linux-uclibc/usr/lib/libc.a(sprintf.os)
                0x0000000000568760                __GI_sprintf
                0x0000000000568760                sprintf
 .text          0x00000000005687b0      0x110 /opt/mipsel-linux-uclibc/usr/lib/libc.a(vsnprintf.os)
                0x00000000005687b0                __GI_vsnprintf
                0x00000000005687b0                vsnprintf
 .text          0x00000000005688c0      0x170 /opt/mipsel-linux-uclibc/usr/lib/libc.a(fseeko64.os)
                0x00000000005688c0                __GI_fseeko64
                0x00000000005688c0                fseeko64
 .text          0x0000000000568a30      0x110 /opt/mipsel-linux-uclibc/usr/lib/libc.a(ftello64.os)
                0x0000000000568a30                __GI_ftello64
                0x0000000000568a30                ftello64
 .text          0x0000000000568b40       0xd0 /opt/mipsel-linux-uclibc/usr/lib/libc.a(_adjust_pos.os)
                0x0000000000568b40                __stdio_adjust_position
 .text          0x0000000000568c10      0x370 /opt/mipsel-linux-uclibc/usr/lib/libc.a(_fopen.os)
                0x0000000000568c10                _stdio_fopen
 .text          0x0000000000568f80      0x250 /opt/mipsel-linux-uclibc/usr/lib/libc.a(_stdio.os)
                0x0000000000569048                __stdio_init_mutex
                0x0000000000569068                _stdio_term
                0x0000000000568f80                _stdio_init
 .text          0x00000000005691d0       0x60 /opt/mipsel-linux-uclibc/usr/lib/libc.a(_wcommit.os)
                0x00000000005691d0                __stdio_wcommit
 .text          0x0000000000569230       0xb0 /opt/mipsel-linux-uclibc/usr/lib/libc.a(_cs_funcs.os)
                0x00000000005692c4                _cs_read
                0x0000000000569230                _cs_close
                0x0000000000569248                _cs_seek
                0x00000000005692ac                _cs_write
 .text          0x00000000005692e0       0xf0 /opt/mipsel-linux-uclibc/usr/lib/libc.a(vfprintf.os)
                0x00000000005692e0                vfprintf
                0x00000000005692e0                __GI_vfprintf
 .text          0x00000000005693d0      0x820 /opt/mipsel-linux-uclibc/usr/lib/libc.a(_vfprintf_internal.os)
                0x00000000005694f4                _vfprintf_internal
 .text          0x0000000000569bf0       0xf0 /opt/mipsel-linux-uclibc/usr/lib/libc.a(_ppfs_init.os)
                0x0000000000569bf0                _ppfs_init
 .text          0x0000000000569ce0       0x70 /opt/mipsel-linux-uclibc/usr/lib/libc.a(_ppfs_prepargs.os)
                0x0000000000569ce0                _ppfs_prepargs
 .text          0x0000000000569d50      0x1c0 /opt/mipsel-linux-uclibc/usr/lib/libc.a(_ppfs_setargs.os)
                0x0000000000569d50                _ppfs_setargs
 .text          0x0000000000569f10      0x5c0 /opt/mipsel-linux-uclibc/usr/lib/libc.a(_ppfs_parsespec.os)
                0x0000000000569f10                _ppfs_parsespec
 .text          0x000000000056a4d0       0xa0 /opt/mipsel-linux-uclibc/usr/lib/libc.a(clearerr.os)
                0x000000000056a4d0                clearerr
 .text          0x000000000056a570       0xa0 /opt/mipsel-linux-uclibc/usr/lib/libc.a(feof.os)
                0x000000000056a570                feof
 .text          0x000000000056a610       0xa0 /opt/mipsel-linux-uclibc/usr/lib/libc.a(ferror.os)
                0x000000000056a610                ferror
 .text          0x000000000056a6b0       0xd0 /opt/mipsel-linux-uclibc/usr/lib/libc.a(fflush.os)
                0x000000000056a6b0                fflush
                0x000000000056a6b0                __GI_fflush
 .text          0x000000000056a780       0xd0 /opt/mipsel-linux-uclibc/usr/lib/libc.a(fgets.os)
                0x000000000056a780                fgets
                0x000000000056a780                __GI_fgets
 .text          0x000000000056a850      0x110 /opt/mipsel-linux-uclibc/usr/lib/libc.a(fputc.os)
                0x000000000056a850                fputc
                0x000000000056a850                __GI_putc
                0x000000000056a850                __GI_fputc
                0x000000000056a850                putc
 .text          0x000000000056a960       0xe0 /opt/mipsel-linux-uclibc/usr/lib/libc.a(fread.os)
                0x000000000056a960                fread
                0x000000000056a960                __GI_fread
 .text          0x000000000056aa40       0xe0 /opt/mipsel-linux-uclibc/usr/lib/libc.a(fwrite.os)
                0x000000000056aa40                fwrite
                0x000000000056aa40                __GI_fwrite
 .text          0x000000000056ab20      0x120 /opt/mipsel-linux-uclibc/usr/lib/libc.a(putchar.os)
                0x000000000056ab20                putchar
 .text          0x000000000056ac40      0x3b0 /opt/mipsel-linux-uclibc/usr/lib/libc.a(fflush_unlocked.os)
                0x000000000056ad9c                __GI_fflush_unlocked
                0x000000000056ac40                _stdio_openlist_dec_use
                0x000000000056ad9c                fflush_unlocked
 .text          0x000000000056aff0      0x120 /opt/mipsel-linux-uclibc/usr/lib/libc.a(fgets_unlocked.os)
                0x000000000056aff0                __GI_fgets_unlocked
                0x000000000056aff0                fgets_unlocked
 .text          0x000000000056b110      0x150 /opt/mipsel-linux-uclibc/usr/lib/libc.a(fputc_unlocked.os)
                0x000000000056b110                putc_unlocked
                0x000000000056b110                __fputc_unlocked
                0x000000000056b110                __GI___fputc_unlocked
                0x000000000056b110                __GI_putc_unlocked
                0x000000000056b110                fputc_unlocked
 .text          0x000000000056b260       0x80 /opt/mipsel-linux-uclibc/usr/lib/libc.a(fputs_unlocked.os)
                0x000000000056b260                __GI_fputs_unlocked
                0x000000000056b260                fputs_unlocked
 .text          0x000000000056b2e0      0x1e0 /opt/mipsel-linux-uclibc/usr/lib/libc.a(fread_unlocked.os)
                0x000000000056b2e0                fread_unlocked
                0x000000000056b2e0                __GI_fread_unlocked
 .text          0x000000000056b4c0       0xf0 /opt/mipsel-linux-uclibc/usr/lib/libc.a(fwrite_unlocked.os)
                0x000000000056b4c0                __GI_fwrite_unlocked
                0x000000000056b4c0                fwrite_unlocked
 .text          0x000000000056b5b0      0x140 /opt/mipsel-linux-uclibc/usr/lib/libc.a(memcpy.os)
                0x000000000056b5b0                memcpy
                0x000000000056b5b0                __GI_memcpy
 .text          0x000000000056b6f0       0x90 /opt/mipsel-linux-uclibc/usr/lib/libc.a(memset.os)
                0x000000000056b6f0                __GI_memset
                0x000000000056b6f0                memset
 .text          0x000000000056b780      0x430 /opt/mipsel-linux-uclibc/usr/lib/libc.a(memcmp.os)
                0x000000000056b780                __GI_memcmp
                0x000000000056b780                memcmp
 .text          0x000000000056bbb0      0x310 /opt/mipsel-linux-uclibc/usr/lib/libc.a(memmove.os)
                0x000000000056bbb0                __GI_memmove
                0x000000000056bbb0                memmove
 .text          0x000000000056bec0       0x30 /opt/mipsel-linux-uclibc/usr/lib/libc.a(strcat.os)
                0x000000000056bec0                strcat
                0x000000000056bec0                __GI_strcat
 .text          0x000000000056bef0       0xe0 /opt/mipsel-linux-uclibc/usr/lib/libc.a(strchr.os)
                0x000000000056bef0                __GI_strchr
                0x000000000056bef0                strchr
 .text          0x000000000056bfd0       0x30 /opt/mipsel-linux-uclibc/usr/lib/libc.a(strcmp.os)
                0x000000000056bfd0                strcoll
                0x000000000056bfd0                __GI_strcmp
                0x000000000056bfd0                __GI_strcoll
                0x000000000056bfd0                strcmp
 .text          0x000000000056c000       0x30 /opt/mipsel-linux-uclibc/usr/lib/libc.a(strcpy.os)
                0x000000000056c000                __GI_strcpy
                0x000000000056c000                strcpy
 .text          0x000000000056c030       0xa0 /opt/mipsel-linux-uclibc/usr/lib/libc.a(strlen.os)
                0x000000000056c030                strlen
                0x000000000056c030                __GI_strlen
 .text          0x000000000056c0d0       0xc0 /opt/mipsel-linux-uclibc/usr/lib/libc.a(strncmp.os)
                0x000000000056c0d0                strncmp
                0x000000000056c0d0                __GI_strncmp
 .text          0x000000000056c190       0xc0 /opt/mipsel-linux-uclibc/usr/lib/libc.a(strncpy.os)
                0x000000000056c190                strncpy
                0x000000000056c190                __GI_strncpy
 .text          0x000000000056c250       0xc0 /opt/mipsel-linux-uclibc/usr/lib/libc.a(strnlen.os)
                0x000000000056c250                __GI_strnlen
                0x000000000056c250                strnlen
 .text          0x000000000056c310       0xa0 /opt/mipsel-linux-uclibc/usr/lib/libc.a(strrchr.os)
                0x000000000056c310                strrchr
                0x000000000056c310                __GI_strrchr
 .text          0x000000000056c3b0       0xe0 /opt/mipsel-linux-uclibc/usr/lib/libc.a(strstr.os)
                0x000000000056c3b0                strstr
                0x000000000056c3b0                __GI_strstr
 .text          0x000000000056c490       0x40 /opt/mipsel-linux-uclibc/usr/lib/libc.a(__glibc_strerror_r.os)
                0x000000000056c490                __GI___glibc_strerror_r
                0x000000000056c490                __glibc_strerror_r
 .text          0x000000000056c4d0       0x70 /opt/mipsel-linux-uclibc/usr/lib/libc.a(strcasecmp.os)
                0x000000000056c4d0                strcasecmp
                0x000000000056c4d0                __GI_strcasecmp
 .text          0x000000000056c540       0x50 /opt/mipsel-linux-uclibc/usr/lib/libc.a(strerror.os)
                0x000000000056c540                __GI_strerror
                0x000000000056c540                strerror
 .text          0x000000000056c590       0x70 /opt/mipsel-linux-uclibc/usr/lib/libc.a(strncasecmp.os)
                0x000000000056c590                __GI_strncasecmp
                0x000000000056c590                strncasecmp
 .text          0x000000000056c600      0x160 /opt/mipsel-linux-uclibc/usr/lib/libc.a(__xpg_strerror_r.os)
                0x000000000056c600                strerror_r
                0x000000000056c600                __xpg_strerror_r
                0x000000000056c600                __GI___xpg_strerror_r
 .text          0x000000000056c760       0x40 /opt/mipsel-linux-uclibc/usr/lib/libc.a(isatty.os)
                0x000000000056c760                __GI_isatty
                0x000000000056c760                isatty
 .text          0x000000000056c7a0       0xb0 /opt/mipsel-linux-uclibc/usr/lib/libc.a(tcgetattr.os)
                0x000000000056c7a0                __GI_tcgetattr
                0x000000000056c7a0                tcgetattr
 .text          0x000000000056c850      0x1a0 /opt/mipsel-linux-uclibc/usr/lib/libc.a(tcsetattr.os)
                0x000000000056c850                tcsetattr
                0x000000000056c850                __GI_tcsetattr
 .text          0x000000000056c9f0      0xad0 /opt/mipsel-linux-uclibc/usr/lib/libc.a(malloc.os)
                0x000000000056ca7c                malloc
 .text          0x000000000056d4c0      0x140 /opt/mipsel-linux-uclibc/usr/lib/libc.a(calloc.os)
                0x000000000056d4c0                calloc
 .text          0x000000000056d600      0x440 /opt/mipsel-linux-uclibc/usr/lib/libc.a(realloc.os)
                0x000000000056d600                realloc
 .text          0x000000000056da40      0x580 /opt/mipsel-linux-uclibc/usr/lib/libc.a(free.os)
                0x000000000056df60                malloc_trim
                0x000000000056db44                __malloc_consolidate
                0x000000000056dd20                free
 .text          0x000000000056dfc0      0x190 /opt/mipsel-linux-uclibc/usr/lib/libc.a(abort.os)
                0x000000000056dfc0                __GI_abort
                0x000000000056dfc0                abort
 .text          0x000000000056e150      0x1f0 /opt/mipsel-linux-uclibc/usr/lib/libc.a(system.os)
                0x000000000056e150                system
                0x000000000056e150                __libc_system
 .text          0x000000000056e340       0x20 /opt/mipsel-linux-uclibc/usr/lib/libc.a(strtol.os)
                0x000000000056e340                strtol
                0x000000000056e340                __GI_strtol
 .text          0x000000000056e360       0x20 /opt/mipsel-linux-uclibc/usr/lib/libc.a(strtoul.os)
                0x000000000056e360                strtoul
                0x000000000056e360                __GI_strtoul
 .text          0x000000000056e380      0x210 /opt/mipsel-linux-uclibc/usr/lib/libc.a(_stdlib_strto_l.os)
                0x000000000056e380                _stdlib_strto_l
 .text          0x000000000056e590      0x140 /opt/mipsel-linux-uclibc/usr/lib/libc.a(qsort.os)
                0x000000000056e590                qsort
                0x000000000056e590                __GI_qsort
 .text          0x000000000056e6d0       0x70 /opt/mipsel-linux-uclibc/usr/lib/libc.a(strtod.os)
                0x000000000056e6d0                strtod
                0x000000000056e6d0                __GI_strtod
 .text          0x000000000056e740      0x560 /opt/mipsel-linux-uclibc/usr/lib/libc.a(__strtofpmax.os)
                0x000000000056e740                __strtofpmax
 .text          0x000000000056eca0      0x110 /opt/mipsel-linux-uclibc/usr/lib/libc.a(__fp_range_check.os)
                0x000000000056eca0                __fp_range_check
 .text          0x000000000056edb0       0xb0 /opt/mipsel-linux-uclibc/usr/lib/libc.a(exit.os)
                0x000000000056edb0                __GI_exit
                0x000000000056edb0                exit
 .text          0x000000000056ee60       0xc0 /opt/mipsel-linux-uclibc/usr/lib/libc.a(execl.os)
                0x000000000056ee60                execl
                0x000000000056ee60                __GI_execl
 .text          0x000000000056ef20      0x190 /opt/mipsel-linux-uclibc/usr/lib/libc.a(sysconf.os)
                0x000000000056ef20                sysconf
                0x000000000056ef20                __GI_sysconf
 .text          0x000000000056f0b0       0x60 /opt/mipsel-linux-uclibc/usr/lib/libc.a(usleep.os)
                0x000000000056f0b0                usleep
 .text          0x000000000056f110      0x490 /opt/mipsel-linux-uclibc/usr/lib/libc.a(__uClibc_main.os)
                0x000000000056f1b4                __pthread_mutex_init
                0x000000000056f1b4                __pthread_mutex_trylock
                0x000000000056f1bc                _pthread_cleanup_push_defer
                0x000000000056f2b0                __uClibc_main
                0x000000000056f1b4                __pthread_mutex_lock
                0x000000000056f240                __GI___uClibc_init
                0x000000000056f1b4                __pthread_mutex_unlock
                0x000000000056f240                __uClibc_init
                0x000000000056f1bc                _pthread_cleanup_pop_restore
                0x000000000056f110                __GI___uClibc_fini
                0x000000000056f110                __uClibc_fini
 .text          0x000000000056f5a0       0x50 /opt/mipsel-linux-uclibc/usr/lib/libc.a(__longjmp.os)
                0x000000000056f5a0                __longjmp
                0x000000000056f5a0                __GI___longjmp
 .text          0x000000000056f5f0       0x50 /opt/mipsel-linux-uclibc/usr/lib/libc.a(setjmp_aux.os)
                0x000000000056f5f0                __sigsetjmp_aux
 .text          0x000000000056f640       0xe0 /opt/mipsel-linux-uclibc/usr/lib/libc.a(sigaction.os)
                0x000000000056f640                __libc_sigaction
                0x000000000056f640                sigaction
                0x000000000056f640                __GI_sigaction
 .text          0x000000000056f720       0x60 /opt/mipsel-linux-uclibc/usr/lib/libc.a(clock_getres.os)
                0x000000000056f720                __GI_clock_getres
                0x000000000056f720                clock_getres
 .text          0x000000000056f780       0x60 /opt/mipsel-linux-uclibc/usr/lib/libc.a(execve.os)
                0x000000000056f780                execve
                0x000000000056f780                __GI_execve
 .text          0x000000000056f7e0       0x50 /opt/mipsel-linux-uclibc/usr/lib/libc.a(_exit.os)
                0x000000000056f7e0                __GI__exit
                0x000000000056f7e0                _exit
 .text          0x000000000056f830       0x60 /opt/mipsel-linux-uclibc/usr/lib/libc.a(fork.os)
                0x000000000056f830                __GI_fork
                0x000000000056f830                fork
                0x000000000056f830                __libc_fork
 .text          0x000000000056f890       0x90 /opt/mipsel-linux-uclibc/usr/lib/libc.a(fstat.os)
                0x000000000056f890                __GI_fstat
                0x000000000056f890                fstat
 .text          0x000000000056f920       0x50 /opt/mipsel-linux-uclibc/usr/lib/libc.a(getdtablesize.os)
                0x000000000056f920                __GI_getdtablesize
                0x000000000056f920                getdtablesize
 .text          0x000000000056f970       0x60 /opt/mipsel-linux-uclibc/usr/lib/libc.a(getegid.os)
                0x000000000056f970                getegid
                0x000000000056f970                __GI_getegid
 .text          0x000000000056f9d0       0x60 /opt/mipsel-linux-uclibc/usr/lib/libc.a(getgid.os)
                0x000000000056f9d0                __GI_getgid
                0x000000000056f9d0                getgid
 .text          0x000000000056fa30       0x60 /opt/mipsel-linux-uclibc/usr/lib/libc.a(getrlimit.os)
                0x000000000056fa30                getrlimit
                0x000000000056fa30                __GI_getrlimit
 .text          0x000000000056fa90       0x60 /opt/mipsel-linux-uclibc/usr/lib/libc.a(getuid.os)
                0x000000000056fa90                getuid
                0x000000000056fa90                __GI_getuid
 .text          0x000000000056faf0       0xa0 /opt/mipsel-linux-uclibc/usr/lib/libc.a(llseek.os)
                0x000000000056faf0                lseek64
                0x000000000056faf0                __GI_lseek64
                0x000000000056faf0                __libc_lseek64
 .text          0x000000000056fb90       0x80 /opt/mipsel-linux-uclibc/usr/lib/libc.a(mremap.os)
                0x000000000056fb90                mremap
                0x000000000056fb90                __GI_mremap
 .text          0x000000000056fc10       0x60 /opt/mipsel-linux-uclibc/usr/lib/libc.a(nanosleep.os)
                0x000000000056fc10                __GI_nanosleep
                0x000000000056fc10                __libc_nanosleep
                0x000000000056fc10                nanosleep
 .text          0x000000000056fc70       0x90 /opt/mipsel-linux-uclibc/usr/lib/libc.a(sbrk.os)
                0x000000000056fc70                sbrk
                0x000000000056fc70                __GI_sbrk
 .text          0x000000000056fd00       0x70 /opt/mipsel-linux-uclibc/usr/lib/libc.a(__syscall_fcntl64.os)
                0x000000000056fd00                fcntl64
                0x000000000056fd00                __GI___libc_fcntl64
                0x000000000056fd00                __libc_fcntl64
                0x000000000056fd00                __GI_fcntl64
 .text          0x000000000056fd70       0x60 /opt/mipsel-linux-uclibc/usr/lib/libc.a(__syscall_rt_sigaction.os)
                0x000000000056fd70                __syscall_rt_sigaction
 .text          0x000000000056fdd0       0x60 /opt/mipsel-linux-uclibc/usr/lib/libc.a(wait4.os)
                0x000000000056fdd0                __GI_wait4
                0x000000000056fdd0                wait4
 .text          0x000000000056fe30      0x1d0 /opt/mipsel-linux-uclibc/usr/lib/libc.a(xstatconv.os)
                0x000000000056fe30                __xstat64_conv
                0x000000000056ff24                __xstat_conv
 .text          0x0000000000570000      0x100 /opt/mipsel-linux-uclibc/usr/lib/libc.a(readdir.os)
                0x0000000000570000                __GI_readdir
                0x0000000000570000                readdir
 .text          0x0000000000570100        0x0 /opt/mipsel-linux-uclibc/usr/lib/libc.a(errno.os)
 .text          0x0000000000570100       0xc0 /opt/mipsel-linux-uclibc/usr/lib/libc.a(_READ.os)
                0x0000000000570100                __stdio_READ
 .text          0x00000000005701c0      0x100 /opt/mipsel-linux-uclibc/usr/lib/libc.a(_WRITE.os)
                0x00000000005701c0                __stdio_WRITE
 .text          0x00000000005702c0      0x1b0 /opt/mipsel-linux-uclibc/usr/lib/libc.a(_fwrite.os)
                0x00000000005702c0                __stdio_fwrite
 .text          0x0000000000570470       0xb0 /opt/mipsel-linux-uclibc/usr/lib/libc.a(_trans2r.os)
                0x0000000000570470                __stdio_trans2r
 .text          0x0000000000570520      0x110 /opt/mipsel-linux-uclibc/usr/lib/libc.a(_trans2w.os)
                0x0000000000570520                __stdio_trans2w
 .text          0x0000000000570630       0x80 /opt/mipsel-linux-uclibc/usr/lib/libc.a(_load_inttype.os)
                0x0000000000570630                _load_inttype
 .text          0x00000000005706b0       0x40 /opt/mipsel-linux-uclibc/usr/lib/libc.a(_store_inttype.os)
                0x00000000005706b0                _store_inttype
 .text          0x00000000005706f0      0x120 /opt/mipsel-linux-uclibc/usr/lib/libc.a(_uintmaxtostr.os)
                0x00000000005706f0                _uintmaxtostr
 .text          0x0000000000570810      0xb30 /opt/mipsel-linux-uclibc/usr/lib/libc.a(_fpmaxtostr.os)
                0x0000000000570810                _fpmaxtostr
 .text          0x0000000000571340      0x150 /opt/mipsel-linux-uclibc/usr/lib/libc.a(fgetc_unlocked.os)
                0x0000000000571340                __GI_getc_unlocked
                0x0000000000571340                __fgetc_unlocked
                0x0000000000571340                fgetc_unlocked
                0x0000000000571340                __GI_fgetc_unlocked
                0x0000000000571340                __GI___fgetc_unlocked
                0x0000000000571340                getc_unlocked
 .text          0x0000000000571490       0xf0 /opt/mipsel-linux-uclibc/usr/lib/libc.a(memchr.os)
                0x0000000000571490                __GI_memchr
                0x0000000000571490                memchr
 .text          0x0000000000571580       0x50 /opt/mipsel-linux-uclibc/usr/lib/libc.a(mempcpy.os)
                0x0000000000571580                __GI_mempcpy
                0x0000000000571580                mempcpy
 .text          0x00000000005715d0       0xf0 /opt/mipsel-linux-uclibc/usr/lib/libc.a(memrchr.os)
                0x00000000005715d0                __GI_memrchr
                0x00000000005715d0                memrchr
 .text          0x00000000005716c0        0x0 /opt/mipsel-linux-uclibc/usr/lib/libc.a(_string_syserrmsgs.os)
 .text          0x00000000005716c0       0x50 /opt/mipsel-linux-uclibc/usr/lib/libc.a(raise.os)
                0x00000000005716c0                __GI_raise
                0x00000000005716c0                __raise
                0x00000000005716c0                raise
 .text          0x0000000000571710       0x60 /opt/mipsel-linux-uclibc/usr/lib/libc.a(sigjmp.os)
                0x0000000000571710                __sigjmp_save
 .text          0x0000000000571770       0xf0 /opt/mipsel-linux-uclibc/usr/lib/libc.a(signal.os)
                0x0000000000571770                __bsd_signal
                0x0000000000571770                __GI_signal
                0x0000000000571770                bsd_signal
                0x0000000000571770                signal
 .text          0x0000000000571860       0x90 /opt/mipsel-linux-uclibc/usr/lib/libc.a(sigsetops.os)
                0x00000000005718b4                __sigdelset
                0x0000000000571860                __sigismember
                0x0000000000571888                __sigaddset
 .text          0x00000000005718f0       0x30 /opt/mipsel-linux-uclibc/usr/lib/libc.a(dl-support.os)
                0x00000000005718f0                _dl_aux_init
 .text          0x0000000000571920       0x70 /opt/mipsel-linux-uclibc/usr/lib/libc.a(brk.os)
                0x0000000000571920                __GI_brk
                0x0000000000571920                brk
 .text          0x0000000000571990       0xc0 /opt/mipsel-linux-uclibc/usr/lib/libc.a(getdents.os)
                0x0000000000571990                __getdents
 .text          0x0000000000571a50       0x60 /opt/mipsel-linux-uclibc/usr/lib/libc.a(getpid.os)
                0x0000000000571a50                __GI_getpid
                0x0000000000571a50                getpid
                0x0000000000571a50                __libc_getpid
 .text          0x0000000000571ab0       0x60 /opt/mipsel-linux-uclibc/usr/lib/libc.a(kill.os)
                0x0000000000571ab0                __GI_kill
                0x0000000000571ab0                kill
 .text          0x0000000000571b10       0x60 /opt/mipsel-linux-uclibc/usr/lib/libc.a(_rfill.os)
                0x0000000000571b10                __stdio_rfill
 .text          0x0000000000571b70      0x1b0 /opt/mipsel-linux-uclibc/usr/lib/libc.a(getdents64.os)
                0x0000000000571b70                __getdents64
 .text          0x0000000000571d20       0xc0 /opt/mipsel-linux-uclibc/usr/bin/../lib/gcc/mipsel-linux-uclibc/4.3.3/libgcc.a(_ne_df.o)
                0x0000000000571d20                __nedf2
 .text          0x0000000000571de0       0x60 /opt/mipsel-linux-uclibc/usr/bin/../lib/gcc/mipsel-linux-uclibc/4.3.3/crtend.o
 .text          0x0000000000571e40        0x0 /opt/mipsel-linux-uclibc/usr/lib/crtn.o
 *(.gnu.warning)
 *(.mips16.fn.*)
 *(.mips16.call.*)

.fini           0x0000000000571e40       0x54
 *(.fini)
 .fini          0x0000000000571e40       0x1c /opt/mipsel-linux-uclibc/usr/lib/crti.o
                0x0000000000571e40                _fini
 .fini          0x0000000000571e5c       0x2c /opt/mipsel-linux-uclibc/usr/bin/../lib/gcc/mipsel-linux-uclibc/4.3.3/crtbeginT.o
 .fini          0x0000000000571e88        0xc /opt/mipsel-linux-uclibc/usr/lib/crtn.o
                0x0000000000571e94                PROVIDE (__etext, .)
                0x0000000000571e94                PROVIDE (_etext, .)
                0x0000000000571e94                PROVIDE (etext, .)

.rodata         0x0000000000571ea0     0xe380
 *(.rodata .rodata.* .gnu.linkonce.r.*)
 .rodata.str1.4
                0x0000000000571ea0      0x276 platform/gp2x/main.o
                                        0x278 (size before relaxing)
 *fill*         0x0000000000572116        0xa 00
 .rodata        0x0000000000572120       0x20 platform/gp2x/main.o
 .rodata.str1.4
                0x0000000000572140      0xb85 platform/gp2x/menu.o
                                        0xba8 (size before relaxing)
 *fill*         0x0000000000572cc5        0xb 00
 .rodata        0x0000000000572cd0      0x130 platform/gp2x/menu.o
 .rodata.str1.4
                0x0000000000572e00      0x1ac platform/gp2x/emu.o
                                        0x1bc (size before relaxing)
 *fill*         0x0000000000572fac        0x4 00
 .rodata        0x0000000000572fb0       0x20 platform/gp2x/usbjoy.o
 .rodata.str1.4
                0x0000000000572fd0       0x76 platform/gp2x/usbjoy.o
                                         0x78 (size before relaxing)
 *fill*         0x0000000000573046        0x2 00
 .rodata.str1.4
                0x0000000000573048      0x34e gp2x.o
                                        0x360 (size before relaxing)
 *fill*         0x0000000000573396        0x2 00
 .rodata.str1.4
                0x0000000000573398       0x7b log_io.o
                                         0x7c (size before relaxing)
 *fill*         0x0000000000573413        0x1 00
 .rodata.str1.4
                0x0000000000573414      0x3d9 platform/common/emu.o
                                        0x40c (size before relaxing)
 *fill*         0x00000000005737ed        0x3 00
 .rodata.str1.4
                0x00000000005737f0       0xeb platform/common/menu.o
                                        0x100 (size before relaxing)
 *fill*         0x00000000005738db        0x5 00
 .rodata        0x00000000005738e0       0x10 platform/common/menu.o
 .rodata.str1.4
                0x00000000005738f0      0x27d platform/common/readpng.o
                                        0x284 (size before relaxing)
 .rodata.str1.4
                0x0000000000000000        0x8 Pico/Area.o
 *fill*         0x0000000000573b6d        0x3 00
 .rodata.str1.4
                0x0000000000573b70      0x223 Pico/Cart.o
                                        0x240 (size before relaxing)
 *fill*         0x0000000000573d93        0x1 00
 .rodata.str1.4
                0x0000000000573d94      0x153 Pico/Memory.o
                                        0x154 (size before relaxing)
 *fill*         0x0000000000573ee7        0x1 00
 .rodata.str1.4
                0x0000000000573ee8      0x1e9 Pico/Misc.o
                                        0x1ec (size before relaxing)
 *fill*         0x00000000005740d1        0xf 00
 .rodata        0x00000000005740e0      0x8b0 Pico/Misc.o
                0x00000000005742e0                hcounts_32
                0x00000000005744e0                vcounts
                0x00000000005740e0                hcounts_40
 .rodata.str1.4
                0x0000000000574990      0x256 Pico/Pico.o
                                        0x258 (size before relaxing)
 *fill*         0x0000000000574be6        0xa 00
 .rodata        0x0000000000574bf0       0x80 Pico/Pico.o
 .rodata.str1.4
                0x0000000000574c70       0xd5 Pico/VideoPort.o
                                         0xd8 (size before relaxing)
 *fill*         0x0000000000574d45        0xb 00
 .rodata        0x0000000000574d50       0x10 Pico/Draw2.o
 .rodata        0x0000000000574d60       0x50 Pico/Draw.o
 .rodata.str1.4
                0x0000000000574db0        0x5 Pico/Patch.o
                                          0xc (size before relaxing)
 *fill*         0x0000000000574db5        0xb 00
 .rodata        0x0000000000574dc0       0x40 Pico/Patch.o
 .rodata        0x0000000000574e00      0x320 Pico/cd/Memory.o
 .rodata.str1.4
                0x0000000000575120      0x17e Pico/cd/Memory.o
                                        0x180 (size before relaxing)
 *fill*         0x000000000057529e        0x2 00
 .rodata        0x00000000005752a0       0xd0 Pico/cd/LC89510.o
 .rodata.str1.4
                0x0000000000575370       0x2f Pico/cd/cd_sys.o
                                         0x30 (size before relaxing)
 *fill*         0x000000000057539f        0x1 00
 .rodata.str1.4
                0x00000000005753a0       0x66 Pico/cd/cd_file.o
                                         0x6c (size before relaxing)
 *fill*         0x0000000000575406        0xa 00
 .rodata        0x0000000000575410      0x210 Pico/cd/gfx_cd.o
 .rodata.str1.4
                0x0000000000575620      0x597 Pico/cd/Area.o
                                        0x598 (size before relaxing)
 *fill*         0x0000000000575bb7        0x9 00
 .rodata        0x0000000000575bc0       0x60 Pico/cd/Area.o
 .rodata.str1.4
                0x0000000000575c20       0x1d Pico/cd/pcm.o
                                         0x20 (size before relaxing)
 *fill*         0x0000000000575c3d        0x3 00
 .rodata.cst8   0x0000000000575c40        0x8 Pico/cd/pcm.o
 .rodata.cst4   0x0000000000575c48        0x8 Pico/cd/pcm.o
 .rodata.str1.4
                0x0000000000575c50       0x3e Pico/cd/buffering.o
                                         0x40 (size before relaxing)
 *fill*         0x0000000000575c8e        0x2 00
 .rodata.str1.4
                0x0000000000575c90       0x67 Pico/sound/sound.o
                                         0x68 (size before relaxing)
 *fill*         0x0000000000575cf7        0x1 00
 .rodata.cst8   0x0000000000575cf8        0x8 Pico/sound/sn76496.o
 .rodata        0x0000000000575d00      0x430 Pico/sound/ym2612.o
 .rodata.cst8   0x0000000000576130       0x58 Pico/sound/ym2612.o
 .rodata.str1.4
                0x0000000000576188       0x24 zlib/gzio.o
                                         0x30 (size before relaxing)
 .rodata.str1.4
                0x00000000005761ac       0x54 zlib/inffast.o
 .rodata.str1.4
                0x0000000000576200      0x16b zlib/inflate.o
                                        0x1c0 (size before relaxing)
 *fill*         0x000000000057636b        0x5 00
 .rodata        0x0000000000576370      0x920 zlib/inflate.o
 .rodata        0x0000000000576c90      0x130 zlib/inftrees.o
                0x0000000000576c90                inflate_copyright
 .rodata        0x0000000000576dc0      0xa30 zlib/trees.o
                0x0000000000576fc0                _length_code
                0x0000000000576dc0                _dist_code
 .rodata        0x00000000005777f0       0x40 zlib/deflate.o
                0x00000000005777f0                deflate_copyright
 .rodata        0x0000000000577830     0x2000 zlib/crc32.o
 .rodata.str1.4
                0x0000000000579830       0x7d zlib/zutil.o
                                         0x8c (size before relaxing)
 .rodata.str1.4
                0x0000000000000000        0x8 zlib/compress.o
 .rodata.str1.4
                0x0000000000000000        0x8 zlib/uncompr.o
 *fill*         0x00000000005798ad        0x3 00
 .rodata.str1.4
                0x00000000005798b0      0x3fb unzip/unzip.o
                                        0x408 (size before relaxing)
 .rodata.str1.4
                0x0000000000000000      0x104 unzip/unzip_stream.o
 *fill*         0x0000000000579cab        0x5 00
 .rodata        0x0000000000579cb0      0x1b0 cpu/musashi/m68kcpu.o
 .rodata.str1.4
                0x0000000000579e60       0x37 cpu/musashi/m68kcpu.o
                                         0x38 (size before relaxing)
 *fill*         0x0000000000579e97        0x9 00
 .rodata        0x0000000000579ea0      0x400 cpu/fame/famec.o
 .rodata        0x000000000057a2a0       0xa0 cpu/cz80/cz80.o
 .rodata.str1.4
                0x000000000057a340      0x286 Pico/Debug.o
                                        0x290 (size before relaxing)
 *fill*         0x000000000057a5c6        0x2 00
 .rodata.str1.4
                0x000000000057a5c8     0x19ac cpu/musashi/m68kdasm.o
                                       0x1a18 (size before relaxing)
 *fill*         0x000000000057bf74        0xc 00
 .rodata        0x000000000057bf80      0x500 cpu/musashi/m68kdasm.o
 .rodata.cst8   0x000000000057c480        0x8 /opt/mipsel-linux-uclibc/usr/lib/libm.a(s_floor.os)
 .rodata.cst8   0x000000000057c488       0x70 /opt/mipsel-linux-uclibc/usr/lib/libm.a(e_log.os)
                                         0x80 (size before relaxing)
 *fill*         0x000000000057c4f8        0x8 00
 .rodata        0x000000000057c500       0x30 /opt/mipsel-linux-uclibc/usr/lib/libm.a(e_pow.os)
 .rodata.cst8   0x000000000057c530       0xd0 /opt/mipsel-linux-uclibc/usr/lib/libm.a(e_pow.os)
                                         0xf8 (size before relaxing)
 .rodata        0x000000000057c600      0x190 /opt/mipsel-linux-uclibc/usr/lib/libm.a(e_rem_pio2.os)
 .rodata.cst8   0x000000000057c790       0x48 /opt/mipsel-linux-uclibc/usr/lib/libm.a(e_rem_pio2.os)
                                         0x50 (size before relaxing)
 .rodata.cst8   0x000000000057c7d8       0x38 /opt/mipsel-linux-uclibc/usr/lib/libm.a(k_cos.os)
                                         0x48 (size before relaxing)
 .rodata        0x000000000057c810       0x50 /opt/mipsel-linux-uclibc/usr/lib/libm.a(k_rem_pio2.os)
 .rodata.cst8   0x000000000057c860       0x20 /opt/mipsel-linux-uclibc/usr/lib/libm.a(k_rem_pio2.os)
                                         0x38 (size before relaxing)
 .rodata.cst8   0x000000000057c880       0x30 /opt/mipsel-linux-uclibc/usr/lib/libm.a(k_sin.os)
                                         0x38 (size before relaxing)
 .rodata.cst8   0x000000000057c8b0        0x8 /opt/mipsel-linux-uclibc/usr/lib/libm.a(s_scalbn.os)
                                         0x20 (size before relaxing)
 .rodata.str1.4
                0x000000000057c8b8      0x261 /opt/mipsel-linux-uclibc/usr/lib/libpng.a(libpng12_la-png.o)
                                        0x26c (size before relaxing)
 *fill*         0x000000000057cb19        0x7 00
 .rodata        0x000000000057cb20      0x100 /opt/mipsel-linux-uclibc/usr/lib/libpng.a(libpng12_la-png.o)
                0x000000000057cb58                png_pass_inc
                0x000000000057cb34                png_sig
                0x000000000057cb20                png_libpng_ver
                0x000000000057cb90                png_pass_yinc
                0x000000000057cbac                png_pass_mask
                0x000000000057cbc8                png_pass_dsp_mask
                0x000000000057cb74                png_pass_ystart
                0x000000000057cb3c                png_pass_start
 .rodata.str1.4
                0x000000000057cc20       0x86 /opt/mipsel-linux-uclibc/usr/lib/libpng.a(libpng12_la-pngget.o)
                                         0x88 (size before relaxing)
 *fill*         0x000000000057cca6        0x2 00
 .rodata.str1.4
                0x000000000057cca8      0x351 /opt/mipsel-linux-uclibc/usr/lib/libpng.a(libpng12_la-pngread.o)
                                        0x35c (size before relaxing)
 *fill*         0x000000000057cff9        0x7 00
 .rodata        0x000000000057d000       0x20 /opt/mipsel-linux-uclibc/usr/lib/libpng.a(libpng12_la-pngread.o)
 .rodata.str1.4
                0x000000000057d020       0x9f /opt/mipsel-linux-uclibc/usr/lib/libpng.a(libpng12_la-pngrio.o)
                                         0xa0 (size before relaxing)
 *fill*         0x000000000057d0bf        0x1 00
 .rodata        0x000000000057d0c0       0xb0 /opt/mipsel-linux-uclibc/usr/lib/libpng.a(libpng12_la-pngrtran.o)
 .rodata.str1.4
                0x000000000057d170      0x116 /opt/mipsel-linux-uclibc/usr/lib/libpng.a(libpng12_la-pngrtran.o)
                                        0x118 (size before relaxing)
 *fill*         0x000000000057d286        0x2 00
 .rodata.cst8   0x000000000057d288       0x30 /opt/mipsel-linux-uclibc/usr/lib/libpng.a(libpng12_la-pngrtran.o)
                                         0x40 (size before relaxing)
 .rodata.str1.4
                0x000000000057d2b8        0xf /opt/mipsel-linux-uclibc/usr/lib/libpng.a(libpng12_la-pngmem.o)
                                         0x10 (size before relaxing)
 *fill*         0x000000000057d2c7        0x1 00
 .rodata.str1.4
                0x000000000057d2c8       0x7e /opt/mipsel-linux-uclibc/usr/lib/libpng.a(libpng12_la-pngerror.o)
                                         0x80 (size before relaxing)
 *fill*         0x000000000057d346        0xa 00
 .rodata        0x000000000057d350       0x10 /opt/mipsel-linux-uclibc/usr/lib/libpng.a(libpng12_la-pngerror.o)
 .rodata.str1.4
                0x000000000057d360      0xea8 /opt/mipsel-linux-uclibc/usr/lib/libpng.a(libpng12_la-pngrutil.o)
                                        0xed8 (size before relaxing)
 *fill*         0x000000000057e208        0x8 00
 .rodata        0x000000000057e210       0x50 /opt/mipsel-linux-uclibc/usr/lib/libpng.a(libpng12_la-pngrutil.o)
 .rodata.cst4   0x000000000057e260        0x4 /opt/mipsel-linux-uclibc/usr/lib/libpng.a(libpng12_la-pngrutil.o)
 *fill*         0x000000000057e264        0xc 00
 .rodata        0x000000000057e270      0x300 /opt/mipsel-linux-uclibc/usr/lib/libpng.a(libpng12_la-pngtrans.o)
 .rodata.str1.4
                0x000000000057e570      0x46c /opt/mipsel-linux-uclibc/usr/lib/libpng.a(libpng12_la-pngset.o)
 *fill*         0x000000000057e9dc        0x4 00
 .rodata.cst8   0x000000000057e9e0        0x8 /opt/mipsel-linux-uclibc/usr/lib/libpng.a(libpng12_la-pngset.o)
                                         0x18 (size before relaxing)
 .rodata.cst4   0x000000000057e9e8       0x28 /opt/mipsel-linux-uclibc/usr/lib/libpng.a(libpng12_la-pngset.o)
 .rodata.cst4   0x000000000057ea10        0x4 /opt/mipsel-linux-uclibc/usr/bin/../lib/gcc/mipsel-linux-uclibc/4.3.3/libgcc.a(_fixunssfsi.o)
 *fill*         0x000000000057ea14        0x4 00
 .rodata.cst8   0x000000000057ea18        0x8 /opt/mipsel-linux-uclibc/usr/bin/../lib/gcc/mipsel-linux-uclibc/4.3.3/libgcc.a(_fixunsdfsi.o)
 .rodata.cst4   0x000000000057ea20        0x4 /opt/mipsel-linux-uclibc/usr/bin/../lib/gcc/mipsel-linux-uclibc/4.3.3/libgcc.a(_si_to_sf.o)
 *fill*         0x000000000057ea24        0xc 00
 .rodata        0x000000000057ea30       0x10 /opt/mipsel-linux-uclibc/usr/bin/../lib/gcc/mipsel-linux-uclibc/4.3.3/libgcc.a(_thenan_sf.o)
                0x000000000057ea30                __thenan_sf
 .rodata.cst8   0x000000000057ea40        0x8 /opt/mipsel-linux-uclibc/usr/bin/../lib/gcc/mipsel-linux-uclibc/4.3.3/libgcc.a(_si_to_df.o)
 *fill*         0x000000000057ea48        0x8 00
 .rodata        0x000000000057ea50       0x20 /opt/mipsel-linux-uclibc/usr/bin/../lib/gcc/mipsel-linux-uclibc/4.3.3/libgcc.a(_thenan_df.o)
                0x000000000057ea50                __thenan_df
 .rodata        0x000000000057ea70      0x100 /opt/mipsel-linux-uclibc/usr/bin/../lib/gcc/mipsel-linux-uclibc/4.3.3/libgcc.a(_clz.o)
                0x000000000057ea70                __clz_tab
 .rodata        0x000000000057eb70      0x300 /opt/mipsel-linux-uclibc/usr/lib/libc.a(__C_ctype_b.os)
                0x000000000057eb70                __C_ctype_b_data
                0x000000000057eb70                __GI___C_ctype_b_data
 .rodata        0x000000000057ee70      0x300 /opt/mipsel-linux-uclibc/usr/lib/libc.a(__C_ctype_tolower.os)
                0x000000000057ee70                __C_ctype_tolower_data
                0x000000000057ee70                __GI___C_ctype_tolower_data
 .rodata.str1.4
                0x000000000057f170        0x8 /opt/mipsel-linux-uclibc/usr/lib/libc.a(perror.os)
                                          0xc (size before relaxing)
 *fill*         0x000000000057f178        0x8 00
 .rodata        0x000000000057f180       0x20 /opt/mipsel-linux-uclibc/usr/lib/libc.a(_stdio.os)
 .rodata.str1.4
                0x000000000057f1a0        0xf /opt/mipsel-linux-uclibc/usr/lib/libc.a(_vfprintf_internal.os)
                                         0x10 (size before relaxing)
 *fill*         0x000000000057f1af        0x1 00
 .rodata        0x000000000057f1b0       0x20 /opt/mipsel-linux-uclibc/usr/lib/libc.a(_vfprintf_internal.os)
 .rodata        0x000000000057f1d0       0x90 /opt/mipsel-linux-uclibc/usr/lib/libc.a(_ppfs_parsespec.os)
 .rodata        0x000000000057f260       0x20 /opt/mipsel-linux-uclibc/usr/lib/libc.a(memmove.os)
 .rodata        0x000000000057f280       0x90 /opt/mipsel-linux-uclibc/usr/lib/libc.a(__xpg_strerror_r.os)
 .rodata.str1.4
                0x000000000057f310        0xf /opt/mipsel-linux-uclibc/usr/lib/libc.a(system.os)
                                         0x10 (size before relaxing)
 *fill*         0x000000000057f31f        0x1 00
 .rodata        0x000000000057f320       0x20 /opt/mipsel-linux-uclibc/usr/lib/libc.a(__strtofpmax.os)
 .rodata.cst8   0x000000000057f340       0x18 /opt/mipsel-linux-uclibc/usr/lib/libc.a(__strtofpmax.os)
                                         0x20 (size before relaxing)
 .rodata.cst8   0x0000000000000000        0x8 /opt/mipsel-linux-uclibc/usr/lib/libc.a(__fp_range_check.os)
 *fill*         0x000000000057f358        0x8 00
 .rodata        0x000000000057f360      0x260 /opt/mipsel-linux-uclibc/usr/lib/libc.a(sysconf.os)
 .rodata.str1.4
                0x000000000057f5c0        0xc /opt/mipsel-linux-uclibc/usr/lib/libc.a(__uClibc_main.os)
                                         0x10 (size before relaxing)
 *fill*         0x000000000057f5cc        0x4 00
 .rodata        0x000000000057f5d0       0xb0 /opt/mipsel-linux-uclibc/usr/lib/libc.a(_fpmaxtostr.os)
 .rodata.cst8   0x000000000057f680       0x18 /opt/mipsel-linux-uclibc/usr/lib/libc.a(_fpmaxtostr.os)
                                         0x30 (size before relaxing)
 *fill*         0x000000000057f698        0x8 00
 .rodata        0x000000000057f6a0      0xb80 /opt/mipsel-linux-uclibc/usr/lib/libc.a(_string_syserrmsgs.os)
                0x000000000057f6a0                _string_syserrmsgs

.rodata1
 *(.rodata1)

.sdata2
 *(.sdata2 .sdata2.* .gnu.linkonce.s2.*)

.sbss2
 *(.sbss2 .sbss2.* .gnu.linkonce.sb2.*)

.eh_frame_hdr
 *(.eh_frame_hdr)

.eh_frame       0x0000000000580220        0x4
 *(.eh_frame)
 .eh_frame      0x0000000000580220        0x0 /opt/mipsel-linux-uclibc/usr/bin/../lib/gcc/mipsel-linux-uclibc/4.3.3/crtbeginT.o
 .eh_frame      0x0000000000580220        0x4 /opt/mipsel-linux-uclibc/usr/bin/../lib/gcc/mipsel-linux-uclibc/4.3.3/crtend.o

.gcc_except_table
 *(.gcc_except_table .gcc_except_table.*)
                0x0000000000580224                . = (ALIGN (0x10000) - ((0x10000 - .) & 0xffff))
                0x0000000000590224                . = (0x10000 DATA_SEGMENT_ALIGN 0x1000)

.eh_frame
 *(.eh_frame)

.gcc_except_table
 *(.gcc_except_table .gcc_except_table.*)

.tdata
 *(.tdata .tdata.* .gnu.linkonce.td.*)

.tbss
 *(.tbss .tbss.* .gnu.linkonce.tb.*)
 *(.tcommon)

.preinit_array  0x0000000000590224        0x0
                0x0000000000590224                PROVIDE (__preinit_array_start, .)
 *(.preinit_array)
                0x0000000000590224                PROVIDE (__preinit_array_end, .)

.init_array     0x0000000000590224        0x0
                0x0000000000590224                PROVIDE (__init_array_start, .)
 *(SORT(.init_array.*))
 *(.init_array)
                0x0000000000590224                PROVIDE (__init_array_end, .)

.fini_array     0x0000000000590224        0x0
                0x0000000000590224                PROVIDE (__fini_array_start, .)
 *(.fini_array)
 *(SORT(.fini_array.*))
                0x0000000000590224                PROVIDE (__fini_array_end, .)

.ctors          0x0000000000590224        0x8
 *crtbegin.o(.ctors)
 *crtbegin?.o(.ctors)
 .ctors         0x0000000000590224        0x4 /opt/mipsel-linux-uclibc/usr/bin/../lib/gcc/mipsel-linux-uclibc/4.3.3/crtbeginT.o
 *(EXCLUDE_FILE(*crtend?.o *crtend.o) .ctors)
 *(SORT(.ctors.*))
 *(.ctors)
 .ctors         0x0000000000590228        0x4 /opt/mipsel-linux-uclibc/usr/bin/../lib/gcc/mipsel-linux-uclibc/4.3.3/crtend.o

.dtors          0x000000000059022c        0x8
 *crtbegin.o(.dtors)
 *crtbegin?.o(.dtors)
 .dtors         0x000000000059022c        0x4 /opt/mipsel-linux-uclibc/usr/bin/../lib/gcc/mipsel-linux-uclibc/4.3.3/crtbeginT.o
 *(EXCLUDE_FILE(*crtend?.o *crtend.o) .dtors)
 *(SORT(.dtors.*))
 *(.dtors)
 .dtors         0x0000000000590230        0x4 /opt/mipsel-linux-uclibc/usr/bin/../lib/gcc/mipsel-linux-uclibc/4.3.3/crtend.o
                0x0000000000590230                __DTOR_END__

.jcr            0x0000000000590234        0x4
 *(.jcr)
 .jcr           0x0000000000590234        0x0 /opt/mipsel-linux-uclibc/usr/bin/../lib/gcc/mipsel-linux-uclibc/4.3.3/crtbeginT.o
 .jcr           0x0000000000590234        0x4 /opt/mipsel-linux-uclibc/usr/bin/../lib/gcc/mipsel-linux-uclibc/4.3.3/crtend.o

.data.rel.ro    0x0000000000590238     0x16b4
 *(.data.rel.ro.local* .gnu.linkonce.d.rel.ro.local.*)
 .data.rel.ro.local
                0x0000000000590238       0xa8 platform/gp2x/menu.o
 .data.rel.ro.local
                0x00000000005902e0       0x18 gp2x.o
 .data.rel.ro.local
                0x00000000005902f8       0x78 zlib/deflate.o
 .data.rel.ro.local
                0x0000000000590370       0x28 zlib/zutil.o
                0x0000000000590370                z_errmsg
 .data.rel.ro.local
                0x0000000000590398     0x1400 cpu/cz80/cz80.o
 .data.rel.ro.local
                0x0000000000591798      0x140 cpu/musashi/m68kdasm.o
 *(.data.rel.ro* .gnu.linkonce.d.rel.ro.*)
 .data.rel.ro   0x00000000005918d8        0x8 platform/gp2x/menu.o
 .data.rel.ro   0x00000000005918e0        0x4 Pico/Draw2.o
 .data.rel.ro   0x00000000005918e4        0x4 Pico/Draw.o
 .data.rel.ro   0x00000000005918e8        0x4 Pico/cd/cd_file.o
                0x00000000005918ec                . = (. DATA_SEGMENT_RELRO_END 0x0)

.data           0x00000000005918f0     0xac60
                0x00000000005918f0                _fdata = .
 *(.data .data.* .gnu.linkonce.d.*)
 .data          0x00000000005918f0       0x10 /opt/mipsel-linux-uclibc/usr/lib/crt1.o
                0x00000000005918f0                data_start
                0x00000000005918f0                __data_start
 .data          0x0000000000591900        0x0 /opt/mipsel-linux-uclibc/usr/lib/crti.o
 .data          0x0000000000591900        0x0 /opt/mipsel-linux-uclibc/usr/bin/../lib/gcc/mipsel-linux-uclibc/4.3.3/crtbeginT.o
 .data          0x0000000000591900        0x0 platform/gp2x/main.o
 .data          0x0000000000591900       0x10 platform/gp2x/menu.o
 .data.rel      0x0000000000591910      0x360 platform/gp2x/menu.o
                0x0000000000591ac0                opt_entries
                0x0000000000591910                cdopt_entries
                0x0000000000591a18                opt2_entries
 .data.rel.local
                0x0000000000591c70      0x198 platform/gp2x/menu.o
                0x0000000000591c70                main_entries
 *fill*         0x0000000000591e08        0x8 00
 .data          0x0000000000591e10       0x10 platform/gp2x/emu.o
 .data          0x0000000000591e20        0x0 platform/gp2x/usbjoy.o
 .data          0x0000000000591e20        0x0 blit.o
 .data          0x0000000000591e20       0x20 gp2x.o
                0x0000000000591e2c                saved_vt
                0x0000000000591e24                saved_kbd_mode
                0x0000000000591e20                keyboard_fd
                0x0000000000591e28                current_vt
 .data          0x0000000000591e40      0x280 log_io.o
 .data          0x00000000005920c0        0x0 platform/common/emu.o
 .data.rel.local
                0x00000000005920c0       0x24 platform/common/emu.o
                0x00000000005920c0                PicoConfigFile
                0x00000000005920d0                biosfiles_eu
                0x00000000005920c4                biosfiles_us
                0x00000000005920dc                biosfiles_jp
 *fill*         0x00000000005920e4        0xc 00
 .data          0x00000000005920f0       0x10 platform/common/menu.o
 .data          0x0000000000592100      0xc00 platform/common/fonts.o
                0x0000000000592100                fontdata8x8
                0x0000000000592500                fontdata6x8
 .data          0x0000000000592d00        0x0 platform/common/readpng.o
 .data          0x0000000000592d00        0x0 platform/common/mp3_helix.o
 .data          0x0000000000592d00        0x0 Pico/Area.o
 .data          0x0000000000592d00        0x0 Pico/Cart.o
 .data          0x0000000000592d00        0x0 Pico/Memory.o
 .data          0x0000000000592d00       0x10 Pico/Misc.o
                0x0000000000592d00                lastSSRamWrite
 .data          0x0000000000592d10       0x10 Pico/Pico.o
                0x0000000000592d10                PicoVer
 .data          0x0000000000592d20        0x0 Pico/Sek.o
 .data          0x0000000000592d20        0x0 Pico/VideoPort.o
 .data          0x0000000000592d20        0x0 Pico/Draw2.o
 .data.rel      0x0000000000592d20        0x4 Pico/Draw2.o
                0x0000000000592d20                PicoCramHigh
 *fill*         0x0000000000592d24        0xc 00
 .data          0x0000000000592d30        0x0 Pico/Draw.o
 .data.rel      0x0000000000592d30        0x4 Pico/Draw.o
                0x0000000000592d30                DrawLineDest
 .data.rel.local
                0x0000000000592d34        0x4 Pico/Draw.o
 *fill*         0x0000000000592d38        0x8 00
 .data          0x0000000000592d40       0x70 Pico/Patch.o
 .data          0x0000000000592db0        0x0 Pico/cd/Pico.o
 .data          0x0000000000592db0        0x0 Pico/cd/Memory.o
 .data          0x0000000000592db0        0x0 Pico/cd/Sek.o
 .data          0x0000000000592db0        0x0 Pico/cd/LC89510.o
 .data          0x0000000000592db0        0x0 Pico/cd/cd_sys.o
 .data          0x0000000000592db0        0x0 Pico/cd/cd_file.o
 .data          0x0000000000592db0        0x0 Pico/cd/gfx_cd.o
 .data          0x0000000000592db0        0x0 Pico/cd/Area.o
 .data          0x0000000000592db0       0x40 Pico/cd/Misc.o
                0x0000000000592db0                formatted_bram
 .data          0x0000000000592df0        0x0 Pico/cd/pcm.o
 .data          0x0000000000592df0       0x10 Pico/cd/buffering.o
 .data          0x0000000000592e00        0x0 Pico/sound/sound.o
 .data.rel      0x0000000000592e00        0x4 Pico/sound/sound.o
                0x0000000000592e00                PsndMix_32_to_16l
 *fill*         0x0000000000592e04        0xc 00
 .data          0x0000000000592e10        0x0 Pico/sound/sn76496.o
 .data          0x0000000000592e10        0x0 Pico/sound/ym2612.o
 .data          0x0000000000592e10        0x0 Pico/sound/mix.o
 .data          0x0000000000592e10        0x0 zlib/gzio.o
 .data          0x0000000000592e10        0x0 zlib/inffast.o
 .data          0x0000000000592e10        0x0 zlib/inflate.o
 .data          0x0000000000592e10        0x0 zlib/inftrees.o
 .data          0x0000000000592e10        0x0 zlib/trees.o
 .data.rel.local
                0x0000000000592e10       0x3c zlib/trees.o
 *fill*         0x0000000000592e4c        0x4 00
 .data          0x0000000000592e50        0x0 zlib/deflate.o
 .data          0x0000000000592e50        0x0 zlib/crc32.o
 .data          0x0000000000592e50        0x0 zlib/adler32.o
 .data          0x0000000000592e50        0x0 zlib/zutil.o
 .data          0x0000000000592e50        0x0 zlib/compress.o
 .data          0x0000000000592e50        0x0 zlib/uncompr.o
 .data          0x0000000000592e50       0x10 unzip/unzip.o
 .data          0x0000000000592e60        0x0 unzip/unzip_stream.o
 .data          0x0000000000592e60        0x0 cpu/musashi/m68kops.o
 .data.rel      0x0000000000592e60     0x7af0 cpu/musashi/m68kops.o
 .data          0x000000000059a950      0x610 cpu/musashi/m68kcpu.o
                0x000000000059aa18                m68ki_shift_32_table
                0x000000000059af1c                m68ki_ea_idx_cycle_table
                0x000000000059ab1c                m68ki_exception_cycle_table
                0x000000000059a950                m68ki_shift_8_table
                0x000000000059a994                m68ki_shift_16_table
 .data.rel.local
                0x000000000059af60       0x44 cpu/musashi/m68kcpu.o
                0x000000000059af60                m68ki_cpu_names
 *fill*         0x000000000059afa4        0xc 00
 .data          0x000000000059afb0        0x0 cpu/fame/famec.o
 .data          0x000000000059afb0        0x0 cpu/cz80/cz80.o
 .data          0x000000000059afb0        0x0 Pico/Debug.o
 .data          0x000000000059afb0       0x10 cpu/musashi/m68kdasm.o
 .data.rel.local
                0x000000000059afc0     0x12d4 cpu/musashi/m68kdasm.o
 *fill*         0x000000000059c294        0xc 00
 .data          0x000000000059c2a0        0x0 /opt/mipsel-linux-uclibc/usr/lib/libm.a(s_floor.os)
 .data          0x000000000059c2a0        0x0 /opt/mipsel-linux-uclibc/usr/lib/libm.a(s_sin.os)
 .data          0x000000000059c2a0        0x0 /opt/mipsel-linux-uclibc/usr/lib/libm.a(w_log.os)
 .data          0x000000000059c2a0        0x0 /opt/mipsel-linux-uclibc/usr/lib/libm.a(w_pow.os)
 .data          0x000000000059c2a0        0x0 /opt/mipsel-linux-uclibc/usr/lib/libm.a(e_log.os)
 .data          0x000000000059c2a0        0x0 /opt/mipsel-linux-uclibc/usr/lib/libm.a(e_pow.os)
 .data          0x000000000059c2a0        0x0 /opt/mipsel-linux-uclibc/usr/lib/libm.a(e_rem_pio2.os)
 .data          0x000000000059c2a0        0x0 /opt/mipsel-linux-uclibc/usr/lib/libm.a(e_sqrt.os)
 .data          0x000000000059c2a0        0x0 /opt/mipsel-linux-uclibc/usr/lib/libm.a(k_cos.os)
 .data          0x000000000059c2a0        0x0 /opt/mipsel-linux-uclibc/usr/lib/libm.a(k_rem_pio2.os)
 .data          0x000000000059c2a0        0x0 /opt/mipsel-linux-uclibc/usr/lib/libm.a(k_sin.os)
 .data          0x000000000059c2a0        0x0 /opt/mipsel-linux-uclibc/usr/lib/libm.a(s_fabs.os)
 .data          0x000000000059c2a0        0x0 /opt/mipsel-linux-uclibc/usr/lib/libm.a(s_scalbn.os)
 .data          0x000000000059c2a0        0x0 /opt/mipsel-linux-uclibc/usr/lib/libm.a(s_copysign.os)
 .data          0x000000000059c2a0       0xb0 /opt/mipsel-linux-uclibc/usr/lib/libpng.a(libpng12_la-png.o)
                0x000000000059c2f8                png_pCAL
                0x000000000059c2b8                png_PLTE
                0x000000000059c300                png_sCAL
                0x000000000059c308                png_pHYs
                0x000000000059c330                png_tIME
                0x000000000059c338                png_tRNS
                0x000000000059c2c8                png_cHRM
                0x000000000059c2a0                png_IHDR
                0x000000000059c2c0                png_bKGD
                0x000000000059c2d0                png_gAMA
                0x000000000059c318                png_sPLT
                0x000000000059c2e8                png_iTXt
                0x000000000059c2d8                png_hIST
                0x000000000059c328                png_tEXt
                0x000000000059c2e0                png_iCCP
                0x000000000059c2f0                png_oFFs
                0x000000000059c340                png_zTXt
                0x000000000059c310                png_sBIT
                0x000000000059c2b0                png_IEND
                0x000000000059c2a8                png_IDAT
                0x000000000059c320                png_sRGB
 .data          0x000000000059c350        0x0 /opt/mipsel-linux-uclibc/usr/lib/libpng.a(libpng12_la-pngget.o)
 .data          0x000000000059c350        0x0 /opt/mipsel-linux-uclibc/usr/lib/libpng.a(libpng12_la-pngread.o)
 .data          0x000000000059c350        0x0 /opt/mipsel-linux-uclibc/usr/lib/libpng.a(libpng12_la-pngrio.o)
 .data          0x000000000059c350        0x0 /opt/mipsel-linux-uclibc/usr/lib/libpng.a(libpng12_la-pngrtran.o)
 .data          0x000000000059c350        0x0 /opt/mipsel-linux-uclibc/usr/lib/libpng.a(libpng12_la-pngmem.o)
 .data          0x000000000059c350        0x0 /opt/mipsel-linux-uclibc/usr/lib/libpng.a(libpng12_la-pngerror.o)
 .data          0x000000000059c350        0x0 /opt/mipsel-linux-uclibc/usr/lib/libpng.a(libpng12_la-pngrutil.o)
 .data          0x000000000059c350        0x0 /opt/mipsel-linux-uclibc/usr/lib/libpng.a(libpng12_la-pngtrans.o)
 .data          0x000000000059c350        0x0 /opt/mipsel-linux-uclibc/usr/lib/libpng.a(libpng12_la-pngset.o)
 .data          0x000000000059c350        0x0 /opt/mipsel-linux-uclibc/usr/bin/../lib/gcc/mipsel-linux-uclibc/4.3.3/libgcc.a(_fixunssfsi.o)
 .data          0x000000000059c350        0x0 /opt/mipsel-linux-uclibc/usr/bin/../lib/gcc/mipsel-linux-uclibc/4.3.3/libgcc.a(_fixunsdfsi.o)
 .data          0x000000000059c350        0x0 /opt/mipsel-linux-uclibc/usr/bin/../lib/gcc/mipsel-linux-uclibc/4.3.3/libgcc.a(_addsub_sf.o)
 .data          0x000000000059c350        0x0 /opt/mipsel-linux-uclibc/usr/bin/../lib/gcc/mipsel-linux-uclibc/4.3.3/libgcc.a(_mul_sf.o)
 .data          0x000000000059c350        0x0 /opt/mipsel-linux-uclibc/usr/bin/../lib/gcc/mipsel-linux-uclibc/4.3.3/libgcc.a(_div_sf.o)
 .data          0x000000000059c350        0x0 /opt/mipsel-linux-uclibc/usr/bin/../lib/gcc/mipsel-linux-uclibc/4.3.3/libgcc.a(_ne_sf.o)
 .data          0x000000000059c350        0x0 /opt/mipsel-linux-uclibc/usr/bin/../lib/gcc/mipsel-linux-uclibc/4.3.3/libgcc.a(_ge_sf.o)
 .data          0x000000000059c350        0x0 /opt/mipsel-linux-uclibc/usr/bin/../lib/gcc/mipsel-linux-uclibc/4.3.3/libgcc.a(_si_to_sf.o)
 .data          0x000000000059c350        0x0 /opt/mipsel-linux-uclibc/usr/bin/../lib/gcc/mipsel-linux-uclibc/4.3.3/libgcc.a(_sf_to_si.o)
 .data          0x000000000059c350        0x0 /opt/mipsel-linux-uclibc/usr/bin/../lib/gcc/mipsel-linux-uclibc/4.3.3/libgcc.a(_sf_to_df.o)
 .data          0x000000000059c350        0x0 /opt/mipsel-linux-uclibc/usr/bin/../lib/gcc/mipsel-linux-uclibc/4.3.3/libgcc.a(_thenan_sf.o)
 .data          0x000000000059c350        0x0 /opt/mipsel-linux-uclibc/usr/bin/../lib/gcc/mipsel-linux-uclibc/4.3.3/libgcc.a(_usi_to_sf.o)
 .data          0x000000000059c350        0x0 /opt/mipsel-linux-uclibc/usr/bin/../lib/gcc/mipsel-linux-uclibc/4.3.3/libgcc.a(_addsub_df.o)
 .data          0x000000000059c350        0x0 /opt/mipsel-linux-uclibc/usr/bin/../lib/gcc/mipsel-linux-uclibc/4.3.3/libgcc.a(_mul_df.o)
 .data          0x000000000059c350        0x0 /opt/mipsel-linux-uclibc/usr/bin/../lib/gcc/mipsel-linux-uclibc/4.3.3/libgcc.a(_div_df.o)
 .data          0x000000000059c350        0x0 /opt/mipsel-linux-uclibc/usr/bin/../lib/gcc/mipsel-linux-uclibc/4.3.3/libgcc.a(_eq_df.o)
 .data          0x000000000059c350        0x0 /opt/mipsel-linux-uclibc/usr/bin/../lib/gcc/mipsel-linux-uclibc/4.3.3/libgcc.a(_gt_df.o)
 .data          0x000000000059c350        0x0 /opt/mipsel-linux-uclibc/usr/bin/../lib/gcc/mipsel-linux-uclibc/4.3.3/libgcc.a(_ge_df.o)
 .data          0x000000000059c350        0x0 /opt/mipsel-linux-uclibc/usr/bin/../lib/gcc/mipsel-linux-uclibc/4.3.3/libgcc.a(_lt_df.o)
 .data          0x000000000059c350        0x0 /opt/mipsel-linux-uclibc/usr/bin/../lib/gcc/mipsel-linux-uclibc/4.3.3/libgcc.a(_le_df.o)
 .data          0x000000000059c350        0x0 /opt/mipsel-linux-uclibc/usr/bin/../lib/gcc/mipsel-linux-uclibc/4.3.3/libgcc.a(_si_to_df.o)
 .data          0x000000000059c350        0x0 /opt/mipsel-linux-uclibc/usr/bin/../lib/gcc/mipsel-linux-uclibc/4.3.3/libgcc.a(_df_to_si.o)
 .data          0x000000000059c350        0x0 /opt/mipsel-linux-uclibc/usr/bin/../lib/gcc/mipsel-linux-uclibc/4.3.3/libgcc.a(_make_df.o)
 .data          0x000000000059c350        0x0 /opt/mipsel-linux-uclibc/usr/bin/../lib/gcc/mipsel-linux-uclibc/4.3.3/libgcc.a(_df_to_sf.o)
 .data          0x000000000059c350        0x0 /opt/mipsel-linux-uclibc/usr/bin/../lib/gcc/mipsel-linux-uclibc/4.3.3/libgcc.a(_thenan_df.o)
 .data          0x000000000059c350        0x0 /opt/mipsel-linux-uclibc/usr/bin/../lib/gcc/mipsel-linux-uclibc/4.3.3/libgcc.a(_usi_to_df.o)
 .data          0x000000000059c350        0x0 /opt/mipsel-linux-uclibc/usr/bin/../lib/gcc/mipsel-linux-uclibc/4.3.3/libgcc.a(_lshrdi3.o)
 .data          0x000000000059c350        0x0 /opt/mipsel-linux-uclibc/usr/bin/../lib/gcc/mipsel-linux-uclibc/4.3.3/libgcc.a(_ashldi3.o)
 .data          0x000000000059c350        0x0 /opt/mipsel-linux-uclibc/usr/bin/../lib/gcc/mipsel-linux-uclibc/4.3.3/libgcc.a(_ucmpdi2.o)
 .data          0x000000000059c350        0x0 /opt/mipsel-linux-uclibc/usr/bin/../lib/gcc/mipsel-linux-uclibc/4.3.3/libgcc.a(_clzsi2.o)
 .data          0x000000000059c350        0x0 /opt/mipsel-linux-uclibc/usr/bin/../lib/gcc/mipsel-linux-uclibc/4.3.3/libgcc.a(_pack_sf.o)
 .data          0x000000000059c350        0x0 /opt/mipsel-linux-uclibc/usr/bin/../lib/gcc/mipsel-linux-uclibc/4.3.3/libgcc.a(_unpack_sf.o)
 .data          0x000000000059c350        0x0 /opt/mipsel-linux-uclibc/usr/bin/../lib/gcc/mipsel-linux-uclibc/4.3.3/libgcc.a(_fpcmp_parts_sf.o)
 .data          0x000000000059c350        0x0 /opt/mipsel-linux-uclibc/usr/bin/../lib/gcc/mipsel-linux-uclibc/4.3.3/libgcc.a(_make_sf.o)
 .data          0x000000000059c350        0x0 /opt/mipsel-linux-uclibc/usr/bin/../lib/gcc/mipsel-linux-uclibc/4.3.3/libgcc.a(_pack_df.o)
 .data          0x000000000059c350        0x0 /opt/mipsel-linux-uclibc/usr/bin/../lib/gcc/mipsel-linux-uclibc/4.3.3/libgcc.a(_unpack_df.o)
 .data          0x000000000059c350        0x0 /opt/mipsel-linux-uclibc/usr/bin/../lib/gcc/mipsel-linux-uclibc/4.3.3/libgcc.a(_fpcmp_parts_df.o)
 .data          0x000000000059c350        0x0 /opt/mipsel-linux-uclibc/usr/bin/../lib/gcc/mipsel-linux-uclibc/4.3.3/libgcc.a(_clz.o)
 .data          0x000000000059c350        0x0 /opt/mipsel-linux-uclibc/usr/lib/libc.a(mmap.os)
 .data          0x000000000059c350        0x0 /opt/mipsel-linux-uclibc/usr/lib/libc.a(bsd-_setjmp.os)
 .data          0x000000000059c350        0x0 /opt/mipsel-linux-uclibc/usr/lib/libc.a(setjmp.os)
 .data          0x000000000059c350        0x0 /opt/mipsel-linux-uclibc/usr/lib/libc.a(close.os)
 .data          0x000000000059c350        0x0 /opt/mipsel-linux-uclibc/usr/lib/libc.a(dup.os)
 .data          0x000000000059c350        0x0 /opt/mipsel-linux-uclibc/usr/lib/libc.a(getcwd.os)
 .data          0x000000000059c350        0x0 /opt/mipsel-linux-uclibc/usr/lib/libc.a(geteuid.os)
 .data          0x000000000059c350        0x0 /opt/mipsel-linux-uclibc/usr/lib/libc.a(getpagesize.os)
 .data          0x000000000059c350        0x0 /opt/mipsel-linux-uclibc/usr/lib/libc.a(gettimeofday.os)
 .data          0x000000000059c350        0x0 /opt/mipsel-linux-uclibc/usr/lib/libc.a(ioctl.os)
 .data          0x000000000059c350        0x0 /opt/mipsel-linux-uclibc/usr/lib/libc.a(longjmp.os)
 .data          0x000000000059c350        0x0 /opt/mipsel-linux-uclibc/usr/lib/libc.a(mkdir.os)
 .data          0x000000000059c350        0x0 /opt/mipsel-linux-uclibc/usr/lib/libc.a(munmap.os)
 .data          0x000000000059c350        0x0 /opt/mipsel-linux-uclibc/usr/lib/libc.a(open.os)
 .data          0x000000000059c350        0x0 /opt/mipsel-linux-uclibc/usr/lib/libc.a(read.os)
 .data          0x000000000059c350        0x0 /opt/mipsel-linux-uclibc/usr/lib/libc.a(sigprocmask.os)
 .data          0x000000000059c350        0x0 /opt/mipsel-linux-uclibc/usr/lib/libc.a(__syscall_fcntl.os)
 .data          0x000000000059c350        0x0 /opt/mipsel-linux-uclibc/usr/lib/libc.a(write.os)
 .data          0x000000000059c350        0x0 /opt/mipsel-linux-uclibc/usr/lib/libc.a(__C_ctype_b.os)
 .data.rel      0x000000000059c350        0x8 /opt/mipsel-linux-uclibc/usr/lib/libc.a(__C_ctype_b.os)
                0x000000000059c350                __GI___C_ctype_b
                0x000000000059c354                __GI___ctype_b
                0x000000000059c350                __C_ctype_b
                0x000000000059c354                __ctype_b
 *fill*         0x000000000059c358        0x8 00
 .data          0x000000000059c360        0x0 /opt/mipsel-linux-uclibc/usr/lib/libc.a(__C_ctype_tolower.os)
 .data.rel      0x000000000059c360        0x8 /opt/mipsel-linux-uclibc/usr/lib/libc.a(__C_ctype_tolower.os)
                0x000000000059c360                __GI___C_ctype_tolower
                0x000000000059c364                __ctype_tolower
                0x000000000059c360                __C_ctype_tolower
                0x000000000059c364                __GI___ctype_tolower
 *fill*         0x000000000059c368        0x8 00
 .data          0x000000000059c370        0x0 /opt/mipsel-linux-uclibc/usr/lib/libc.a(alphasort.os)
 .data          0x000000000059c370        0x0 /opt/mipsel-linux-uclibc/usr/lib/libc.a(closedir.os)
 .data          0x000000000059c370        0x0 /opt/mipsel-linux-uclibc/usr/lib/libc.a(opendir.os)
 .data          0x000000000059c370        0x0 /opt/mipsel-linux-uclibc/usr/lib/libc.a(scandir.os)
 .data          0x000000000059c370        0x0 /opt/mipsel-linux-uclibc/usr/lib/libc.a(__errno_location.os)
 .data          0x000000000059c370        0x0 /opt/mipsel-linux-uclibc/usr/lib/libc.a(fclose.os)
 .data          0x000000000059c370        0x0 /opt/mipsel-linux-uclibc/usr/lib/libc.a(fdopen.os)
 .data          0x000000000059c370        0x0 /opt/mipsel-linux-uclibc/usr/lib/libc.a(fopen.os)
 .data          0x000000000059c370        0x0 /opt/mipsel-linux-uclibc/usr/lib/libc.a(fseeko.os)
 .data          0x000000000059c370        0x0 /opt/mipsel-linux-uclibc/usr/lib/libc.a(ftello.os)
 .data          0x000000000059c370        0x0 /opt/mipsel-linux-uclibc/usr/lib/libc.a(perror.os)
 .data          0x000000000059c370        0x0 /opt/mipsel-linux-uclibc/usr/lib/libc.a(puts.os)
 .data          0x000000000059c370        0x0 /opt/mipsel-linux-uclibc/usr/lib/libc.a(setvbuf.os)
 .data          0x000000000059c370        0x0 /opt/mipsel-linux-uclibc/usr/lib/libc.a(printf.os)
 .data          0x000000000059c370        0x0 /opt/mipsel-linux-uclibc/usr/lib/libc.a(vsprintf.os)
 .data          0x000000000059c370        0x0 /opt/mipsel-linux-uclibc/usr/lib/libc.a(fprintf.os)
 .data          0x000000000059c370        0x0 /opt/mipsel-linux-uclibc/usr/lib/libc.a(snprintf.os)
 .data          0x000000000059c370        0x0 /opt/mipsel-linux-uclibc/usr/lib/libc.a(sprintf.os)
 .data          0x000000000059c370        0x0 /opt/mipsel-linux-uclibc/usr/lib/libc.a(vsnprintf.os)
 .data          0x000000000059c370        0x0 /opt/mipsel-linux-uclibc/usr/lib/libc.a(fseeko64.os)
 .data          0x000000000059c370        0x0 /opt/mipsel-linux-uclibc/usr/lib/libc.a(ftello64.os)
 .data          0x000000000059c370        0x0 /opt/mipsel-linux-uclibc/usr/lib/libc.a(_adjust_pos.os)
 .data          0x000000000059c370        0x0 /opt/mipsel-linux-uclibc/usr/lib/libc.a(_fopen.os)
 .data          0x000000000059c370       0x40 /opt/mipsel-linux-uclibc/usr/lib/libc.a(_stdio.os)
                0x000000000059c388                _stdio_openlist_del_lock
                0x000000000059c370                _stdio_openlist_add_lock
                0x000000000059c3a0                _stdio_user_locking
 .data.rel.local
                0x000000000059c3b0       0x18 /opt/mipsel-linux-uclibc/usr/lib/libc.a(_stdio.os)
                0x000000000059c3bc                __stdin
                0x000000000059c3b4                stdout
                0x000000000059c3c4                _stdio_openlist
                0x000000000059c3b8                stderr
                0x000000000059c3c0                __stdout
                0x000000000059c3b0                stdin
 .data.rel      0x000000000059c3c8       0xfc /opt/mipsel-linux-uclibc/usr/lib/libc.a(_stdio.os)
 *fill*         0x000000000059c4c4        0xc 00
 .data          0x000000000059c4d0        0x0 /opt/mipsel-linux-uclibc/usr/lib/libc.a(_wcommit.os)
 .data          0x000000000059c4d0        0x0 /opt/mipsel-linux-uclibc/usr/lib/libc.a(_cs_funcs.os)
 .data          0x000000000059c4d0        0x0 /opt/mipsel-linux-uclibc/usr/lib/libc.a(vfprintf.os)
 .data          0x000000000059c4d0        0x0 /opt/mipsel-linux-uclibc/usr/lib/libc.a(_vfprintf_internal.os)
 .data          0x000000000059c4d0        0x0 /opt/mipsel-linux-uclibc/usr/lib/libc.a(_ppfs_init.os)
 .data          0x000000000059c4d0        0x0 /opt/mipsel-linux-uclibc/usr/lib/libc.a(_ppfs_prepargs.os)
 .data          0x000000000059c4d0        0x0 /opt/mipsel-linux-uclibc/usr/lib/libc.a(_ppfs_setargs.os)
 .data          0x000000000059c4d0        0x0 /opt/mipsel-linux-uclibc/usr/lib/libc.a(_ppfs_parsespec.os)
 .data.rel.local
                0x000000000059c4d0        0x4 /opt/mipsel-linux-uclibc/usr/lib/libc.a(_ppfs_parsespec.os)
                0x000000000059c4d0                _custom_printf_spec
 *fill*         0x000000000059c4d4        0xc 00
 .data          0x000000000059c4e0        0x0 /opt/mipsel-linux-uclibc/usr/lib/libc.a(clearerr.os)
 .data          0x000000000059c4e0        0x0 /opt/mipsel-linux-uclibc/usr/lib/libc.a(feof.os)
 .data          0x000000000059c4e0        0x0 /opt/mipsel-linux-uclibc/usr/lib/libc.a(ferror.os)
 .data          0x000000000059c4e0        0x0 /opt/mipsel-linux-uclibc/usr/lib/libc.a(fflush.os)
 .data          0x000000000059c4e0        0x0 /opt/mipsel-linux-uclibc/usr/lib/libc.a(fgets.os)
 .data          0x000000000059c4e0        0x0 /opt/mipsel-linux-uclibc/usr/lib/libc.a(fputc.os)
 .data          0x000000000059c4e0        0x0 /opt/mipsel-linux-uclibc/usr/lib/libc.a(fread.os)
 .data          0x000000000059c4e0        0x0 /opt/mipsel-linux-uclibc/usr/lib/libc.a(fwrite.os)
 .data          0x000000000059c4e0        0x0 /opt/mipsel-linux-uclibc/usr/lib/libc.a(putchar.os)
 .data          0x000000000059c4e0        0x0 /opt/mipsel-linux-uclibc/usr/lib/libc.a(fflush_unlocked.os)
 .data          0x000000000059c4e0        0x0 /opt/mipsel-linux-uclibc/usr/lib/libc.a(fgets_unlocked.os)
 .data          0x000000000059c4e0        0x0 /opt/mipsel-linux-uclibc/usr/lib/libc.a(fputc_unlocked.os)
 .data          0x000000000059c4e0        0x0 /opt/mipsel-linux-uclibc/usr/lib/libc.a(fputs_unlocked.os)
 .data          0x000000000059c4e0        0x0 /opt/mipsel-linux-uclibc/usr/lib/libc.a(fread_unlocked.os)
 .data          0x000000000059c4e0        0x0 /opt/mipsel-linux-uclibc/usr/lib/libc.a(fwrite_unlocked.os)
 .data          0x000000000059c4e0        0x0 /opt/mipsel-linux-uclibc/usr/lib/libc.a(memcpy.os)
 .data          0x000000000059c4e0        0x0 /opt/mipsel-linux-uclibc/usr/lib/libc.a(memset.os)
 .data          0x000000000059c4e0        0x0 /opt/mipsel-linux-uclibc/usr/lib/libc.a(memcmp.os)
 .data          0x000000000059c4e0        0x0 /opt/mipsel-linux-uclibc/usr/lib/libc.a(memmove.os)
 .data          0x000000000059c4e0        0x0 /opt/mipsel-linux-uclibc/usr/lib/libc.a(strcat.os)
 .data          0x000000000059c4e0        0x0 /opt/mipsel-linux-uclibc/usr/lib/libc.a(strchr.os)
 .data          0x000000000059c4e0        0x0 /opt/mipsel-linux-uclibc/usr/lib/libc.a(strcmp.os)
 .data          0x000000000059c4e0        0x0 /opt/mipsel-linux-uclibc/usr/lib/libc.a(strcpy.os)
 .data          0x000000000059c4e0        0x0 /opt/mipsel-linux-uclibc/usr/lib/libc.a(strlen.os)
 .data          0x000000000059c4e0        0x0 /opt/mipsel-linux-uclibc/usr/lib/libc.a(strncmp.os)
 .data          0x000000000059c4e0        0x0 /opt/mipsel-linux-uclibc/usr/lib/libc.a(strncpy.os)
 .data          0x000000000059c4e0        0x0 /opt/mipsel-linux-uclibc/usr/lib/libc.a(strnlen.os)
 .data          0x000000000059c4e0        0x0 /opt/mipsel-linux-uclibc/usr/lib/libc.a(strrchr.os)
 .data          0x000000000059c4e0        0x0 /opt/mipsel-linux-uclibc/usr/lib/libc.a(strstr.os)
 .data          0x000000000059c4e0        0x0 /opt/mipsel-linux-uclibc/usr/lib/libc.a(__glibc_strerror_r.os)
 .data          0x000000000059c4e0        0x0 /opt/mipsel-linux-uclibc/usr/lib/libc.a(strcasecmp.os)
 .data          0x000000000059c4e0        0x0 /opt/mipsel-linux-uclibc/usr/lib/libc.a(strerror.os)
 .data          0x000000000059c4e0        0x0 /opt/mipsel-linux-uclibc/usr/lib/libc.a(strncasecmp.os)
 .data          0x000000000059c4e0        0x0 /opt/mipsel-linux-uclibc/usr/lib/libc.a(__xpg_strerror_r.os)
 .data          0x000000000059c4e0        0x0 /opt/mipsel-linux-uclibc/usr/lib/libc.a(isatty.os)
 .data          0x000000000059c4e0        0x0 /opt/mipsel-linux-uclibc/usr/lib/libc.a(tcgetattr.os)
 .data          0x000000000059c4e0        0x0 /opt/mipsel-linux-uclibc/usr/lib/libc.a(tcsetattr.os)
 .data          0x000000000059c4e0       0x20 /opt/mipsel-linux-uclibc/usr/lib/libc.a(malloc.os)
                0x000000000059c4e0                __malloc_lock
 .data          0x000000000059c500        0x0 /opt/mipsel-linux-uclibc/usr/lib/libc.a(calloc.os)
 .data          0x000000000059c500        0x0 /opt/mipsel-linux-uclibc/usr/lib/libc.a(realloc.os)
 .data          0x000000000059c500        0x0 /opt/mipsel-linux-uclibc/usr/lib/libc.a(free.os)
 .data          0x000000000059c500       0x20 /opt/mipsel-linux-uclibc/usr/lib/libc.a(abort.os)
 .data          0x000000000059c520        0x0 /opt/mipsel-linux-uclibc/usr/lib/libc.a(system.os)
 .data          0x000000000059c520        0x0 /opt/mipsel-linux-uclibc/usr/lib/libc.a(strtol.os)
 .data          0x000000000059c520        0x0 /opt/mipsel-linux-uclibc/usr/lib/libc.a(strtoul.os)
 .data          0x000000000059c520        0x0 /opt/mipsel-linux-uclibc/usr/lib/libc.a(_stdlib_strto_l.os)
 .data          0x000000000059c520        0x0 /opt/mipsel-linux-uclibc/usr/lib/libc.a(qsort.os)
 .data          0x000000000059c520        0x0 /opt/mipsel-linux-uclibc/usr/lib/libc.a(strtod.os)
 .data          0x000000000059c520        0x0 /opt/mipsel-linux-uclibc/usr/lib/libc.a(__strtofpmax.os)
 .data          0x000000000059c520        0x0 /opt/mipsel-linux-uclibc/usr/lib/libc.a(__fp_range_check.os)
 .data          0x000000000059c520       0x20 /opt/mipsel-linux-uclibc/usr/lib/libc.a(exit.os)
                0x000000000059c520                __atexit_lock
 .data          0x000000000059c540        0x0 /opt/mipsel-linux-uclibc/usr/lib/libc.a(execl.os)
 .data          0x000000000059c540        0x0 /opt/mipsel-linux-uclibc/usr/lib/libc.a(sysconf.os)
 .data          0x000000000059c540        0x0 /opt/mipsel-linux-uclibc/usr/lib/libc.a(usleep.os)
 .data          0x000000000059c540        0x0 /opt/mipsel-linux-uclibc/usr/lib/libc.a(__uClibc_main.os)
 .data.rel.local
                0x000000000059c540        0x4 /opt/mipsel-linux-uclibc/usr/lib/libc.a(__uClibc_main.os)
                0x000000000059c540                __uclibc_progname
 *fill*         0x000000000059c544        0xc 00
 .data          0x000000000059c550        0x0 /opt/mipsel-linux-uclibc/usr/lib/libc.a(__longjmp.os)
 .data          0x000000000059c550        0x0 /opt/mipsel-linux-uclibc/usr/lib/libc.a(setjmp_aux.os)
 .data          0x000000000059c550        0x0 /opt/mipsel-linux-uclibc/usr/lib/libc.a(sigaction.os)
 .data          0x000000000059c550        0x0 /opt/mipsel-linux-uclibc/usr/lib/libc.a(clock_getres.os)
 .data          0x000000000059c550        0x0 /opt/mipsel-linux-uclibc/usr/lib/libc.a(execve.os)
 .data          0x000000000059c550        0x0 /opt/mipsel-linux-uclibc/usr/lib/libc.a(_exit.os)
 .data          0x000000000059c550        0x0 /opt/mipsel-linux-uclibc/usr/lib/libc.a(fork.os)
 .data          0x000000000059c550        0x0 /opt/mipsel-linux-uclibc/usr/lib/libc.a(fstat.os)
 .data          0x000000000059c550        0x0 /opt/mipsel-linux-uclibc/usr/lib/libc.a(getdtablesize.os)
 .data          0x000000000059c550        0x0 /opt/mipsel-linux-uclibc/usr/lib/libc.a(getegid.os)
 .data          0x000000000059c550        0x0 /opt/mipsel-linux-uclibc/usr/lib/libc.a(getgid.os)
 .data          0x000000000059c550        0x0 /opt/mipsel-linux-uclibc/usr/lib/libc.a(getrlimit.os)
 .data          0x000000000059c550        0x0 /opt/mipsel-linux-uclibc/usr/lib/libc.a(getuid.os)
 .data          0x000000000059c550        0x0 /opt/mipsel-linux-uclibc/usr/lib/libc.a(llseek.os)
 .data          0x000000000059c550        0x0 /opt/mipsel-linux-uclibc/usr/lib/libc.a(mremap.os)
 .data          0x000000000059c550        0x0 /opt/mipsel-linux-uclibc/usr/lib/libc.a(nanosleep.os)
 .data          0x000000000059c550        0x0 /opt/mipsel-linux-uclibc/usr/lib/libc.a(sbrk.os)
 .data          0x000000000059c550        0x0 /opt/mipsel-linux-uclibc/usr/lib/libc.a(__syscall_fcntl64.os)
 .data          0x000000000059c550        0x0 /opt/mipsel-linux-uclibc/usr/lib/libc.a(__syscall_rt_sigaction.os)
 .data          0x000000000059c550        0x0 /opt/mipsel-linux-uclibc/usr/lib/libc.a(wait4.os)
 .data          0x000000000059c550        0x0 /opt/mipsel-linux-uclibc/usr/lib/libc.a(xstatconv.os)
 .data          0x000000000059c550        0x0 /opt/mipsel-linux-uclibc/usr/lib/libc.a(readdir.os)
 .data          0x000000000059c550        0x0 /opt/mipsel-linux-uclibc/usr/lib/libc.a(errno.os)
 .data          0x000000000059c550        0x0 /opt/mipsel-linux-uclibc/usr/lib/libc.a(_READ.os)
 .data          0x000000000059c550        0x0 /opt/mipsel-linux-uclibc/usr/lib/libc.a(_WRITE.os)
 .data          0x000000000059c550        0x0 /opt/mipsel-linux-uclibc/usr/lib/libc.a(_fwrite.os)
 .data          0x000000000059c550        0x0 /opt/mipsel-linux-uclibc/usr/lib/libc.a(_trans2r.os)
 .data          0x000000000059c550        0x0 /opt/mipsel-linux-uclibc/usr/lib/libc.a(_trans2w.os)
 .data          0x000000000059c550        0x0 /opt/mipsel-linux-uclibc/usr/lib/libc.a(_load_inttype.os)
 .data          0x000000000059c550        0x0 /opt/mipsel-linux-uclibc/usr/lib/libc.a(_store_inttype.os)
 .data          0x000000000059c550        0x0 /opt/mipsel-linux-uclibc/usr/lib/libc.a(_uintmaxtostr.os)
 .data          0x000000000059c550        0x0 /opt/mipsel-linux-uclibc/usr/lib/libc.a(_fpmaxtostr.os)
 .data          0x000000000059c550        0x0 /opt/mipsel-linux-uclibc/usr/lib/libc.a(fgetc_unlocked.os)
 .data          0x000000000059c550        0x0 /opt/mipsel-linux-uclibc/usr/lib/libc.a(memchr.os)
 .data          0x000000000059c550        0x0 /opt/mipsel-linux-uclibc/usr/lib/libc.a(mempcpy.os)
 .data          0x000000000059c550        0x0 /opt/mipsel-linux-uclibc/usr/lib/libc.a(memrchr.os)
 .data          0x000000000059c550        0x0 /opt/mipsel-linux-uclibc/usr/lib/libc.a(_string_syserrmsgs.os)
 .data          0x000000000059c550        0x0 /opt/mipsel-linux-uclibc/usr/lib/libc.a(raise.os)
 .data          0x000000000059c550        0x0 /opt/mipsel-linux-uclibc/usr/lib/libc.a(sigjmp.os)
 .data          0x000000000059c550        0x0 /opt/mipsel-linux-uclibc/usr/lib/libc.a(signal.os)
 .data          0x000000000059c550        0x0 /opt/mipsel-linux-uclibc/usr/lib/libc.a(sigsetops.os)
 .data          0x000000000059c550        0x0 /opt/mipsel-linux-uclibc/usr/lib/libc.a(dl-support.os)
 .data          0x000000000059c550        0x0 /opt/mipsel-linux-uclibc/usr/lib/libc.a(brk.os)
 .data          0x000000000059c550        0x0 /opt/mipsel-linux-uclibc/usr/lib/libc.a(getdents.os)
 .data          0x000000000059c550        0x0 /opt/mipsel-linux-uclibc/usr/lib/libc.a(getpid.os)
 .data          0x000000000059c550        0x0 /opt/mipsel-linux-uclibc/usr/lib/libc.a(kill.os)
 .data          0x000000000059c550        0x0 /opt/mipsel-linux-uclibc/usr/lib/libc.a(_rfill.os)
 .data          0x000000000059c550        0x0 /opt/mipsel-linux-uclibc/usr/lib/libc.a(getdents64.os)
 .data          0x000000000059c550        0x0 /opt/mipsel-linux-uclibc/usr/bin/../lib/gcc/mipsel-linux-uclibc/4.3.3/libgcc.a(_ne_df.o)
 .data          0x000000000059c550        0x0 /opt/mipsel-linux-uclibc/usr/bin/../lib/gcc/mipsel-linux-uclibc/4.3.3/crtend.o
 .data          0x000000000059c550        0x0 /opt/mipsel-linux-uclibc/usr/lib/crtn.o

.data1
 *(.data1)

.got.plt        0x000000000059c550        0x0
 *(.got.plt)
 .got.plt       0x0000000000000000        0x0 /opt/mipsel-linux-uclibc/usr/lib/crt1.o
                0x000000000059c550                . = .
                0x00000000005a4540                _gp = (ALIGN (0x10) + 0x7ff0)

.got            0x000000000059c550      0xdc8
 *(.got)
 .got           0x000000000059c550      0xdc8 /opt/mipsel-linux-uclibc/usr/lib/crt1.o
                0x000000000059c550                _GLOBAL_OFFSET_TABLE_

.sdata          0x000000000059d318        0x4
 *(.sdata .sdata.* .gnu.linkonce.s.*)
 .sdata         0x000000000059d318        0x4 /opt/mipsel-linux-uclibc/usr/bin/../lib/gcc/mipsel-linux-uclibc/4.3.3/crtbeginT.o
                0x000000000059d318                __dso_handle

.lit8
 *(.lit8)

.lit4
 *(.lit4)
                0x000000000059d31c                _edata = .
                0x000000000059d31c                PROVIDE (edata, .)
                0x000000000059d31c                __bss_start = .
                0x000000000059d31c                _fbss = .

.sbss           0x000000000059d31c       0x68
 *(.dynsbss)
 *(.sbss .sbss.* .gnu.linkonce.sb.*)
 *(.scommon)
 .scommon       0x000000000059d31c        0x4 platform/gp2x/main.o
                0x000000000059d31c                g_argv
 .scommon       0x000000000059d320        0x4 platform/gp2x/emu.o
                0x000000000059d320                engineState
 .scommon       0x000000000059d324        0x8 gp2x.o
                0x000000000059d324                gp2x_screen
                0x000000000059d328                jz_emcregs
 .scommon       0x000000000059d32c        0x4 Pico/Memory.o
                0x000000000059d32c                lastread_a
 .scommon       0x000000000059d330       0x10 Pico/Pico.o
                0x000000000059d330                PicoPad
                0x000000000059d338                z80startCycle
                0x000000000059d33c                z80stopCycle
 .scommon       0x000000000059d340        0x4 Pico/Draw.o
                0x000000000059d340                rendstatus
 .scommon       0x000000000059d344        0x8 Pico/cd/Memory.o
                0x000000000059d344                s68k_poll_adclk
                0x000000000059d348                s68k_poll_cnt
 .scommon       0x000000000059d34c        0x4 Pico/sound/sn76496.o
                0x000000000059d34c                sn76496_regs
 .scommon       0x000000000059d350        0xc Pico/sound/ym2612.o
                0x000000000059d350                ym2612_dacout
                0x000000000059d354                ym2612_st
                0x000000000059d358                ym2612_dacen
 .scommon       0x000000000059d35c       0x14 cpu/musashi/m68kcpu.o
                0x000000000059d35c                m68ki_aerr_address
                0x000000000059d360                m68ki_initial_cycles
                0x000000000059d364                m68ki_aerr_fc
                0x000000000059d368                m68ki_address_space
                0x000000000059d36c                m68ki_aerr_write_mode
 .scommon       0x000000000059d370        0x4 cpu/fame/famec.o
                0x000000000059d370                g_m68kcontext
 .scommon       0x000000000059d374        0x8 Pico/Debug.o
                0x000000000059d374                old_sr
                0x000000000059d378                ppop
 .scommon       0x000000000059d37c        0x8 /opt/mipsel-linux-uclibc/usr/lib/libc.a(dl-support.os)
                0x000000000059d37c                _dl_phdr
                0x000000000059d380                _dl_phnum

.bss            0x000000000059d3c0   0x1cc85c
 *(.dynbss)
 *(.bss .bss.* .gnu.linkonce.b.*)
 .bss           0x000000000059d3c0        0x0 /opt/mipsel-linux-uclibc/usr/lib/crt1.o
 .bss           0x000000000059d3c0        0x0 /opt/mipsel-linux-uclibc/usr/lib/crti.o
 .bss           0x000000000059d3c0       0x20 /opt/mipsel-linux-uclibc/usr/bin/../lib/gcc/mipsel-linux-uclibc/4.3.3/crtbeginT.o
 .bss           0x000000000059d3e0       0x10 platform/gp2x/main.o
                0x000000000059d3e0                mmuhack_status
 .bss           0x000000000059d3f0       0xf0 platform/gp2x/menu.o
 .bss           0x000000000059d4e0      0xe20 platform/gp2x/emu.o
                0x000000000059d4e0                select_exits
                0x000000000059d4e8                reset_timing
                0x000000000059d4e4                PicoDraw2FB
 .bss           0x000000000059e300       0x10 platform/gp2x/usbjoy.o
                0x000000000059e300                num_of_joys
 .bss           0x000000000059e310        0x0 blit.o
 .bss           0x000000000059e310      0x440 gp2x.o
                0x000000000059e31c                ext_menu
                0x000000000059e314                screensize
                0x000000000059e310                fbfd
                0x000000000059e324                crashed_940
                0x000000000059e318                fbp
                0x000000000059e320                ext_state
 .bss           0x000000000059e750        0x0 log_io.o
 .bss           0x000000000059e750      0x620 platform/common/emu.o
                0x000000000059e758                config_slot
                0x000000000059e75c                config_slot_current
                0x000000000059e750                rom_data
                0x000000000059e754                state_slot
                0x000000000059e760                movie_data
 .bss           0x000000000059ed70     0x2840 platform/common/menu.o
                0x000000000059ed70                menuErrorMsg
 .bss           0x00000000005a15b0        0x0 platform/common/fonts.o
 .bss           0x00000000005a15b0        0x0 platform/common/readpng.o
 .bss           0x00000000005a15b0        0x0 platform/common/mp3_helix.o
 .bss           0x00000000005a15b0       0x20 Pico/Area.o
                0x00000000005a15bc                areaSeek
                0x00000000005a15b0                areaRead
                0x00000000005a15b8                areaEof
                0x00000000005a15c0                areaClose
                0x00000000005a15b4                areaWrite
 .bss           0x00000000005a15d0       0x10 Pico/Cart.o
                0x00000000005a15d0                PicoCartLoadProgressCB
                0x00000000005a15d4                PicoCDLoadProgressCB
 .bss           0x00000000005a15e0       0xe0 Pico/Memory.o
                0x00000000005a16a4                lrp_mus
                0x00000000005a16a8                lwp_cyc
                0x00000000005a1660                lastwrite_mus_d
                0x00000000005a1620                lastwrite_cyc_d
                0x00000000005a16ac                lwp_mus
                0x00000000005a16a0                lrp_cyc
                0x00000000005a15e0                lastread_d
 .bss           0x00000000005a16c0        0x0 Pico/Misc.o
 .bss           0x00000000005a16c0      0x440 Pico/Pico.o
                0x00000000005a16cc                PicoAutoRgnOrder
                0x00000000005a16c4                PicoSkipFrame
                0x00000000005a16d8                SRam
                0x00000000005a16c0                PicoOpt
                0x00000000005a16f0                PicoMessage
                0x00000000005a16ec                PicoMCD
                0x00000000005a16d4                PicoWriteSound
                0x00000000005a16c8                PicoRegionOverride
                0x00000000005a16d0                emustatus
 .bss           0x00000000005a1b00       0x10 Pico/Sek.o
                0x00000000005a1b00                SekCycleCnt
                0x00000000005a1b08                SekCycleCntT
                0x00000000005a1b04                SekCycleAim
 .bss           0x00000000005a1b10        0x0 Pico/VideoPort.o
 .bss           0x00000000005a1b10     0x2540 Pico/Draw2.o
                0x00000000005a1b10                currpri
                0x00000000005a1b14                PicoPrepareCram
 .bss           0x00000000005a4050      0x530 Pico/Draw.o
                0x00000000005a4050                PicoScan
                0x00000000005a4054                Scanline
 .bss           0x00000000005a4580       0x10 Pico/Patch.o
                0x00000000005a4580                PicoPatches
                0x00000000005a4584                PicoPatchCount
 .bss           0x00000000005a4590       0x10 Pico/cd/Pico.o
                0x00000000005a4594                PicoMCDcloseTray
                0x00000000005a4590                PicoMCDopenTray
 .bss           0x00000000005a45a0       0x10 Pico/cd/Memory.o
 .bss           0x00000000005a45b0       0x10 Pico/cd/Sek.o
                0x00000000005a45b0                SekCycleCntS68k
                0x00000000005a45b4                SekCycleAimS68k
 .bss           0x00000000005a45c0        0x0 Pico/cd/LC89510.o
 .bss           0x00000000005a45c0       0x10 Pico/cd/cd_sys.o
 .bss           0x00000000005a45d0        0x0 Pico/cd/cd_file.o
 .bss           0x00000000005a45d0        0x0 Pico/cd/gfx_cd.o
 .bss           0x00000000005a45d0       0x10 Pico/cd/Area.o
                0x00000000005a45d0                PicoStateProgressCB
 .bss           0x00000000005a45e0        0x0 Pico/cd/Misc.o
 .bss           0x00000000005a45e0       0x10 Pico/cd/pcm.o
 .bss           0x00000000005a45f0       0x10 Pico/cd/buffering.o
                0x00000000005a45f0                PicoCDBuffers
 .bss           0x00000000005a4600     0x1e20 Pico/sound/sound.o
                0x00000000005a460c                PsndLen_exc_cnt
                0x00000000005a4604                PsndLen
                0x00000000005a4600                PsndRate
                0x00000000005a4610                PsndOut
                0x00000000005a4608                PsndLen_exc_add
 .bss           0x00000000005a6420       0xc0 Pico/sound/sn76496.o
 *fill*         0x00000000005a64e0       0x20 00
 .bss           0x00000000005a6500    0x24e80 Pico/sound/ym2612.o
 .bss           0x00000000005cb380        0x0 Pico/sound/mix.o
 .bss           0x00000000005cb380        0x0 zlib/gzio.o
 .bss           0x00000000005cb380        0x0 zlib/inffast.o
 .bss           0x00000000005cb380        0x0 zlib/inflate.o
 .bss           0x00000000005cb380        0x0 zlib/inftrees.o
 .bss           0x00000000005cb380        0x0 zlib/trees.o
 .bss           0x00000000005cb380        0x0 zlib/deflate.o
 .bss           0x00000000005cb380        0x0 zlib/crc32.o
 .bss           0x00000000005cb380        0x0 zlib/adler32.o
 .bss           0x00000000005cb380        0x0 zlib/zutil.o
 .bss           0x00000000005cb380        0x0 zlib/compress.o
 .bss           0x00000000005cb380        0x0 zlib/uncompr.o
 .bss           0x00000000005cb380        0x0 unzip/unzip.o
 .bss           0x00000000005cb380        0x0 unzip/unzip_stream.o
 .bss           0x00000000005cb380        0x0 cpu/musashi/m68kops.o
 .bss           0x00000000005cb380       0x20 cpu/musashi/m68kcpu.o
                0x00000000005cb380                m68ki_tracing
                0x00000000005cb384                m68ki_cpu_p
 .bss           0x00000000005cb3a0    0x40010 cpu/fame/famec.o
 .bss           0x000000000060b3b0    0x41500 cpu/cz80/cz80.o
 .bss           0x000000000064c8b0       0x20 Pico/Debug.o
                0x000000000064c8b4                dbg_irq_level
                0x000000000064c8b0                have_illegal
                0x000000000064c8b8                dbg_irq_level_sub
 .bss           0x000000000064c8d0    0x40230 cpu/musashi/m68kdasm.o
 .bss           0x000000000068cb00        0x0 /opt/mipsel-linux-uclibc/usr/lib/libm.a(s_floor.os)
 .bss           0x000000000068cb00        0x0 /opt/mipsel-linux-uclibc/usr/lib/libm.a(s_sin.os)
 .bss           0x000000000068cb00        0x0 /opt/mipsel-linux-uclibc/usr/lib/libm.a(w_log.os)
 .bss           0x000000000068cb00        0x0 /opt/mipsel-linux-uclibc/usr/lib/libm.a(w_pow.os)
 .bss           0x000000000068cb00        0x0 /opt/mipsel-linux-uclibc/usr/lib/libm.a(e_log.os)
 .bss           0x000000000068cb00        0x0 /opt/mipsel-linux-uclibc/usr/lib/libm.a(e_pow.os)
 .bss           0x000000000068cb00        0x0 /opt/mipsel-linux-uclibc/usr/lib/libm.a(e_rem_pio2.os)
 .bss           0x000000000068cb00        0x0 /opt/mipsel-linux-uclibc/usr/lib/libm.a(e_sqrt.os)
 .bss           0x000000000068cb00        0x0 /opt/mipsel-linux-uclibc/usr/lib/libm.a(k_cos.os)
 .bss           0x000000000068cb00        0x0 /opt/mipsel-linux-uclibc/usr/lib/libm.a(k_rem_pio2.os)
 .bss           0x000000000068cb00        0x0 /opt/mipsel-linux-uclibc/usr/lib/libm.a(k_sin.os)
 .bss           0x000000000068cb00        0x0 /opt/mipsel-linux-uclibc/usr/lib/libm.a(s_fabs.os)
 .bss           0x000000000068cb00        0x0 /opt/mipsel-linux-uclibc/usr/lib/libm.a(s_scalbn.os)
 .bss           0x000000000068cb00        0x0 /opt/mipsel-linux-uclibc/usr/lib/libm.a(s_copysign.os)
 .bss           0x000000000068cb00        0x0 /opt/mipsel-linux-uclibc/usr/lib/libpng.a(libpng12_la-png.o)
 .bss           0x000000000068cb00        0x0 /opt/mipsel-linux-uclibc/usr/lib/libpng.a(libpng12_la-pngget.o)
 .bss           0x000000000068cb00        0x0 /opt/mipsel-linux-uclibc/usr/lib/libpng.a(libpng12_la-pngread.o)
 .bss           0x000000000068cb00        0x0 /opt/mipsel-linux-uclibc/usr/lib/libpng.a(libpng12_la-pngrio.o)
 .bss           0x000000000068cb00        0x0 /opt/mipsel-linux-uclibc/usr/lib/libpng.a(libpng12_la-pngrtran.o)
 .bss           0x000000000068cb00        0x0 /opt/mipsel-linux-uclibc/usr/lib/libpng.a(libpng12_la-pngmem.o)
 .bss           0x000000000068cb00        0x0 /opt/mipsel-linux-uclibc/usr/lib/libpng.a(libpng12_la-pngerror.o)
 .bss           0x000000000068cb00        0x0 /opt/mipsel-linux-uclibc/usr/lib/libpng.a(libpng12_la-pngrutil.o)
 .bss           0x000000000068cb00        0x0 /opt/mipsel-linux-uclibc/usr/lib/libpng.a(libpng12_la-pngtrans.o)
 .bss           0x000000000068cb00        0x0 /opt/mipsel-linux-uclibc/usr/lib/libpng.a(libpng12_la-pngset.o)
 .bss           0x000000000068cb00        0x0 /opt/mipsel-linux-uclibc/usr/bin/../lib/gcc/mipsel-linux-uclibc/4.3.3/libgcc.a(_fixunssfsi.o)
 .bss           0x000000000068cb00        0x0 /opt/mipsel-linux-uclibc/usr/bin/../lib/gcc/mipsel-linux-uclibc/4.3.3/libgcc.a(_fixunsdfsi.o)
 .bss           0x000000000068cb00        0x0 /opt/mipsel-linux-uclibc/usr/bin/../lib/gcc/mipsel-linux-uclibc/4.3.3/libgcc.a(_addsub_sf.o)
 .bss           0x000000000068cb00        0x0 /opt/mipsel-linux-uclibc/usr/bin/../lib/gcc/mipsel-linux-uclibc/4.3.3/libgcc.a(_mul_sf.o)
 .bss           0x000000000068cb00        0x0 /opt/mipsel-linux-uclibc/usr/bin/../lib/gcc/mipsel-linux-uclibc/4.3.3/libgcc.a(_div_sf.o)
 .bss           0x000000000068cb00        0x0 /opt/mipsel-linux-uclibc/usr/bin/../lib/gcc/mipsel-linux-uclibc/4.3.3/libgcc.a(_ne_sf.o)
 .bss           0x000000000068cb00        0x0 /opt/mipsel-linux-uclibc/usr/bin/../lib/gcc/mipsel-linux-uclibc/4.3.3/libgcc.a(_ge_sf.o)
 .bss           0x000000000068cb00        0x0 /opt/mipsel-linux-uclibc/usr/bin/../lib/gcc/mipsel-linux-uclibc/4.3.3/libgcc.a(_si_to_sf.o)
 .bss           0x000000000068cb00        0x0 /opt/mipsel-linux-uclibc/usr/bin/../lib/gcc/mipsel-linux-uclibc/4.3.3/libgcc.a(_sf_to_si.o)
 .bss           0x000000000068cb00        0x0 /opt/mipsel-linux-uclibc/usr/bin/../lib/gcc/mipsel-linux-uclibc/4.3.3/libgcc.a(_sf_to_df.o)
 .bss           0x000000000068cb00        0x0 /opt/mipsel-linux-uclibc/usr/bin/../lib/gcc/mipsel-linux-uclibc/4.3.3/libgcc.a(_thenan_sf.o)
 .bss           0x000000000068cb00        0x0 /opt/mipsel-linux-uclibc/usr/bin/../lib/gcc/mipsel-linux-uclibc/4.3.3/libgcc.a(_usi_to_sf.o)
 .bss           0x000000000068cb00        0x0 /opt/mipsel-linux-uclibc/usr/bin/../lib/gcc/mipsel-linux-uclibc/4.3.3/libgcc.a(_addsub_df.o)
 .bss           0x000000000068cb00        0x0 /opt/mipsel-linux-uclibc/usr/bin/../lib/gcc/mipsel-linux-uclibc/4.3.3/libgcc.a(_mul_df.o)
 .bss           0x000000000068cb00        0x0 /opt/mipsel-linux-uclibc/usr/bin/../lib/gcc/mipsel-linux-uclibc/4.3.3/libgcc.a(_div_df.o)
 .bss           0x000000000068cb00        0x0 /opt/mipsel-linux-uclibc/usr/bin/../lib/gcc/mipsel-linux-uclibc/4.3.3/libgcc.a(_eq_df.o)
 .bss           0x000000000068cb00        0x0 /opt/mipsel-linux-uclibc/usr/bin/../lib/gcc/mipsel-linux-uclibc/4.3.3/libgcc.a(_gt_df.o)
 .bss           0x000000000068cb00        0x0 /opt/mipsel-linux-uclibc/usr/bin/../lib/gcc/mipsel-linux-uclibc/4.3.3/libgcc.a(_ge_df.o)
 .bss           0x000000000068cb00        0x0 /opt/mipsel-linux-uclibc/usr/bin/../lib/gcc/mipsel-linux-uclibc/4.3.3/libgcc.a(_lt_df.o)
 .bss           0x000000000068cb00        0x0 /opt/mipsel-linux-uclibc/usr/bin/../lib/gcc/mipsel-linux-uclibc/4.3.3/libgcc.a(_le_df.o)
 .bss           0x000000000068cb00        0x0 /opt/mipsel-linux-uclibc/usr/bin/../lib/gcc/mipsel-linux-uclibc/4.3.3/libgcc.a(_si_to_df.o)
 .bss           0x000000000068cb00        0x0 /opt/mipsel-linux-uclibc/usr/bin/../lib/gcc/mipsel-linux-uclibc/4.3.3/libgcc.a(_df_to_si.o)
 .bss           0x000000000068cb00        0x0 /opt/mipsel-linux-uclibc/usr/bin/../lib/gcc/mipsel-linux-uclibc/4.3.3/libgcc.a(_make_df.o)
 .bss           0x000000000068cb00        0x0 /opt/mipsel-linux-uclibc/usr/bin/../lib/gcc/mipsel-linux-uclibc/4.3.3/libgcc.a(_df_to_sf.o)
 .bss           0x000000000068cb00        0x0 /opt/mipsel-linux-uclibc/usr/bin/../lib/gcc/mipsel-linux-uclibc/4.3.3/libgcc.a(_thenan_df.o)
 .bss           0x000000000068cb00        0x0 /opt/mipsel-linux-uclibc/usr/bin/../lib/gcc/mipsel-linux-uclibc/4.3.3/libgcc.a(_usi_to_df.o)
 .bss           0x000000000068cb00        0x0 /opt/mipsel-linux-uclibc/usr/bin/../lib/gcc/mipsel-linux-uclibc/4.3.3/libgcc.a(_lshrdi3.o)
 .bss           0x000000000068cb00        0x0 /opt/mipsel-linux-uclibc/usr/bin/../lib/gcc/mipsel-linux-uclibc/4.3.3/libgcc.a(_ashldi3.o)
 .bss           0x000000000068cb00        0x0 /opt/mipsel-linux-uclibc/usr/bin/../lib/gcc/mipsel-linux-uclibc/4.3.3/libgcc.a(_ucmpdi2.o)
 .bss           0x000000000068cb00        0x0 /opt/mipsel-linux-uclibc/usr/bin/../lib/gcc/mipsel-linux-uclibc/4.3.3/libgcc.a(_clzsi2.o)
 .bss           0x000000000068cb00        0x0 /opt/mipsel-linux-uclibc/usr/bin/../lib/gcc/mipsel-linux-uclibc/4.3.3/libgcc.a(_pack_sf.o)
 .bss           0x000000000068cb00        0x0 /opt/mipsel-linux-uclibc/usr/bin/../lib/gcc/mipsel-linux-uclibc/4.3.3/libgcc.a(_unpack_sf.o)
 .bss           0x000000000068cb00        0x0 /opt/mipsel-linux-uclibc/usr/bin/../lib/gcc/mipsel-linux-uclibc/4.3.3/libgcc.a(_fpcmp_parts_sf.o)
 .bss           0x000000000068cb00        0x0 /opt/mipsel-linux-uclibc/usr/bin/../lib/gcc/mipsel-linux-uclibc/4.3.3/libgcc.a(_make_sf.o)
 .bss           0x000000000068cb00        0x0 /opt/mipsel-linux-uclibc/usr/bin/../lib/gcc/mipsel-linux-uclibc/4.3.3/libgcc.a(_pack_df.o)
 .bss           0x000000000068cb00        0x0 /opt/mipsel-linux-uclibc/usr/bin/../lib/gcc/mipsel-linux-uclibc/4.3.3/libgcc.a(_unpack_df.o)
 .bss           0x000000000068cb00        0x0 /opt/mipsel-linux-uclibc/usr/bin/../lib/gcc/mipsel-linux-uclibc/4.3.3/libgcc.a(_fpcmp_parts_df.o)
 .bss           0x000000000068cb00        0x0 /opt/mipsel-linux-uclibc/usr/bin/../lib/gcc/mipsel-linux-uclibc/4.3.3/libgcc.a(_clz.o)
 .bss           0x000000000068cb00        0x0 /opt/mipsel-linux-uclibc/usr/lib/libc.a(mmap.os)
 .bss           0x000000000068cb00        0x0 /opt/mipsel-linux-uclibc/usr/lib/libc.a(bsd-_setjmp.os)
 .bss           0x000000000068cb00        0x0 /opt/mipsel-linux-uclibc/usr/lib/libc.a(setjmp.os)
 .bss           0x000000000068cb00        0x0 /opt/mipsel-linux-uclibc/usr/lib/libc.a(close.os)
 .bss           0x000000000068cb00        0x0 /opt/mipsel-linux-uclibc/usr/lib/libc.a(dup.os)
 .bss           0x000000000068cb00        0x0 /opt/mipsel-linux-uclibc/usr/lib/libc.a(getcwd.os)
 .bss           0x000000000068cb00        0x0 /opt/mipsel-linux-uclibc/usr/lib/libc.a(geteuid.os)
 .bss           0x000000000068cb00        0x0 /opt/mipsel-linux-uclibc/usr/lib/libc.a(getpagesize.os)
 .bss           0x000000000068cb00        0x0 /opt/mipsel-linux-uclibc/usr/lib/libc.a(gettimeofday.os)
 .bss           0x000000000068cb00        0x0 /opt/mipsel-linux-uclibc/usr/lib/libc.a(ioctl.os)
 .bss           0x000000000068cb00        0x0 /opt/mipsel-linux-uclibc/usr/lib/libc.a(longjmp.os)
 .bss           0x000000000068cb00        0x0 /opt/mipsel-linux-uclibc/usr/lib/libc.a(mkdir.os)
 .bss           0x000000000068cb00        0x0 /opt/mipsel-linux-uclibc/usr/lib/libc.a(munmap.os)
 .bss           0x000000000068cb00        0x0 /opt/mipsel-linux-uclibc/usr/lib/libc.a(open.os)
 .bss           0x000000000068cb00        0x0 /opt/mipsel-linux-uclibc/usr/lib/libc.a(read.os)
 .bss           0x000000000068cb00        0x0 /opt/mipsel-linux-uclibc/usr/lib/libc.a(sigprocmask.os)
 .bss           0x000000000068cb00        0x0 /opt/mipsel-linux-uclibc/usr/lib/libc.a(__syscall_fcntl.os)
 .bss           0x000000000068cb00        0x0 /opt/mipsel-linux-uclibc/usr/lib/libc.a(write.os)
 .bss           0x000000000068cb00        0x0 /opt/mipsel-linux-uclibc/usr/lib/libc.a(__C_ctype_b.os)
 .bss           0x000000000068cb00        0x0 /opt/mipsel-linux-uclibc/usr/lib/libc.a(__C_ctype_tolower.os)
 .bss           0x000000000068cb00        0x0 /opt/mipsel-linux-uclibc/usr/lib/libc.a(alphasort.os)
 .bss           0x000000000068cb00        0x0 /opt/mipsel-linux-uclibc/usr/lib/libc.a(closedir.os)
 .bss           0x000000000068cb00        0x0 /opt/mipsel-linux-uclibc/usr/lib/libc.a(opendir.os)
 .bss           0x000000000068cb00        0x0 /opt/mipsel-linux-uclibc/usr/lib/libc.a(scandir.os)
 .bss           0x000000000068cb00        0x0 /opt/mipsel-linux-uclibc/usr/lib/libc.a(__errno_location.os)
 .bss           0x000000000068cb00        0x0 /opt/mipsel-linux-uclibc/usr/lib/libc.a(fclose.os)
 .bss           0x000000000068cb00        0x0 /opt/mipsel-linux-uclibc/usr/lib/libc.a(fdopen.os)
 .bss           0x000000000068cb00        0x0 /opt/mipsel-linux-uclibc/usr/lib/libc.a(fopen.os)
 .bss           0x000000000068cb00        0x0 /opt/mipsel-linux-uclibc/usr/lib/libc.a(fseeko.os)
 .bss           0x000000000068cb00        0x0 /opt/mipsel-linux-uclibc/usr/lib/libc.a(ftello.os)
 .bss           0x000000000068cb00        0x0 /opt/mipsel-linux-uclibc/usr/lib/libc.a(perror.os)
 .bss           0x000000000068cb00        0x0 /opt/mipsel-linux-uclibc/usr/lib/libc.a(puts.os)
 .bss           0x000000000068cb00        0x0 /opt/mipsel-linux-uclibc/usr/lib/libc.a(setvbuf.os)
 .bss           0x000000000068cb00        0x0 /opt/mipsel-linux-uclibc/usr/lib/libc.a(printf.os)
 .bss           0x000000000068cb00        0x0 /opt/mipsel-linux-uclibc/usr/lib/libc.a(vsprintf.os)
 .bss           0x000000000068cb00        0x0 /opt/mipsel-linux-uclibc/usr/lib/libc.a(fprintf.os)
 .bss           0x000000000068cb00        0x0 /opt/mipsel-linux-uclibc/usr/lib/libc.a(snprintf.os)
 .bss           0x000000000068cb00        0x0 /opt/mipsel-linux-uclibc/usr/lib/libc.a(sprintf.os)
 .bss           0x000000000068cb00        0x0 /opt/mipsel-linux-uclibc/usr/lib/libc.a(vsnprintf.os)
 .bss           0x000000000068cb00        0x0 /opt/mipsel-linux-uclibc/usr/lib/libc.a(fseeko64.os)
 .bss           0x000000000068cb00        0x0 /opt/mipsel-linux-uclibc/usr/lib/libc.a(ftello64.os)
 .bss           0x000000000068cb00        0x0 /opt/mipsel-linux-uclibc/usr/lib/libc.a(_adjust_pos.os)
 .bss           0x000000000068cb00        0x0 /opt/mipsel-linux-uclibc/usr/lib/libc.a(_fopen.os)
 .bss           0x000000000068cb00     0x2010 /opt/mipsel-linux-uclibc/usr/lib/libc.a(_stdio.os)
                0x000000000068cb04                _stdio_openlist_del_count
                0x000000000068cb00                _stdio_openlist_use_count
 .bss           0x000000000068eb10        0x0 /opt/mipsel-linux-uclibc/usr/lib/libc.a(_wcommit.os)
 .bss           0x000000000068eb10        0x0 /opt/mipsel-linux-uclibc/usr/lib/libc.a(_cs_funcs.os)
 .bss           0x000000000068eb10        0x0 /opt/mipsel-linux-uclibc/usr/lib/libc.a(vfprintf.os)
 .bss           0x000000000068eb10        0x0 /opt/mipsel-linux-uclibc/usr/lib/libc.a(_vfprintf_internal.os)
 .bss           0x000000000068eb10        0x0 /opt/mipsel-linux-uclibc/usr/lib/libc.a(_ppfs_init.os)
 .bss           0x000000000068eb10        0x0 /opt/mipsel-linux-uclibc/usr/lib/libc.a(_ppfs_prepargs.os)
 .bss           0x000000000068eb10        0x0 /opt/mipsel-linux-uclibc/usr/lib/libc.a(_ppfs_setargs.os)
 .bss           0x000000000068eb10       0x10 /opt/mipsel-linux-uclibc/usr/lib/libc.a(_ppfs_parsespec.os)
 .bss           0x000000000068eb20        0x0 /opt/mipsel-linux-uclibc/usr/lib/libc.a(clearerr.os)
 .bss           0x000000000068eb20        0x0 /opt/mipsel-linux-uclibc/usr/lib/libc.a(feof.os)
 .bss           0x000000000068eb20        0x0 /opt/mipsel-linux-uclibc/usr/lib/libc.a(ferror.os)
 .bss           0x000000000068eb20        0x0 /opt/mipsel-linux-uclibc/usr/lib/libc.a(fflush.os)
 .bss           0x000000000068eb20        0x0 /opt/mipsel-linux-uclibc/usr/lib/libc.a(fgets.os)
 .bss           0x000000000068eb20        0x0 /opt/mipsel-linux-uclibc/usr/lib/libc.a(fputc.os)
 .bss           0x000000000068eb20        0x0 /opt/mipsel-linux-uclibc/usr/lib/libc.a(fread.os)
 .bss           0x000000000068eb20        0x0 /opt/mipsel-linux-uclibc/usr/lib/libc.a(fwrite.os)
 .bss           0x000000000068eb20        0x0 /opt/mipsel-linux-uclibc/usr/lib/libc.a(putchar.os)
 .bss           0x000000000068eb20        0x0 /opt/mipsel-linux-uclibc/usr/lib/libc.a(fflush_unlocked.os)
 .bss           0x000000000068eb20        0x0 /opt/mipsel-linux-uclibc/usr/lib/libc.a(fgets_unlocked.os)
 .bss           0x000000000068eb20        0x0 /opt/mipsel-linux-uclibc/usr/lib/libc.a(fputc_unlocked.os)
 .bss           0x000000000068eb20        0x0 /opt/mipsel-linux-uclibc/usr/lib/libc.a(fputs_unlocked.os)
 .bss           0x000000000068eb20        0x0 /opt/mipsel-linux-uclibc/usr/lib/libc.a(fread_unlocked.os)
 .bss           0x000000000068eb20        0x0 /opt/mipsel-linux-uclibc/usr/lib/libc.a(fwrite_unlocked.os)
 .bss           0x000000000068eb20        0x0 /opt/mipsel-linux-uclibc/usr/lib/libc.a(memcpy.os)
 .bss           0x000000000068eb20        0x0 /opt/mipsel-linux-uclibc/usr/lib/libc.a(memset.os)
 .bss           0x000000000068eb20        0x0 /opt/mipsel-linux-uclibc/usr/lib/libc.a(memcmp.os)
 .bss           0x000000000068eb20        0x0 /opt/mipsel-linux-uclibc/usr/lib/libc.a(memmove.os)
 .bss           0x000000000068eb20        0x0 /opt/mipsel-linux-uclibc/usr/lib/libc.a(strcat.os)
 .bss           0x000000000068eb20        0x0 /opt/mipsel-linux-uclibc/usr/lib/libc.a(strchr.os)
 .bss           0x000000000068eb20        0x0 /opt/mipsel-linux-uclibc/usr/lib/libc.a(strcmp.os)
 .bss           0x000000000068eb20        0x0 /opt/mipsel-linux-uclibc/usr/lib/libc.a(strcpy.os)
 .bss           0x000000000068eb20        0x0 /opt/mipsel-linux-uclibc/usr/lib/libc.a(strlen.os)
 .bss           0x000000000068eb20        0x0 /opt/mipsel-linux-uclibc/usr/lib/libc.a(strncmp.os)
 .bss           0x000000000068eb20        0x0 /opt/mipsel-linux-uclibc/usr/lib/libc.a(strncpy.os)
 .bss           0x000000000068eb20        0x0 /opt/mipsel-linux-uclibc/usr/lib/libc.a(strnlen.os)
 .bss           0x000000000068eb20        0x0 /opt/mipsel-linux-uclibc/usr/lib/libc.a(strrchr.os)
 .bss           0x000000000068eb20        0x0 /opt/mipsel-linux-uclibc/usr/lib/libc.a(strstr.os)
 .bss           0x000000000068eb20        0x0 /opt/mipsel-linux-uclibc/usr/lib/libc.a(__glibc_strerror_r.os)
 .bss           0x000000000068eb20        0x0 /opt/mipsel-linux-uclibc/usr/lib/libc.a(strcasecmp.os)
 .bss           0x000000000068eb20       0x40 /opt/mipsel-linux-uclibc/usr/lib/libc.a(strerror.os)
 .bss           0x000000000068eb60        0x0 /opt/mipsel-linux-uclibc/usr/lib/libc.a(strncasecmp.os)
 .bss           0x000000000068eb60        0x0 /opt/mipsel-linux-uclibc/usr/lib/libc.a(__xpg_strerror_r.os)
 .bss           0x000000000068eb60        0x0 /opt/mipsel-linux-uclibc/usr/lib/libc.a(isatty.os)
 .bss           0x000000000068eb60        0x0 /opt/mipsel-linux-uclibc/usr/lib/libc.a(tcgetattr.os)
 .bss           0x000000000068eb60        0x0 /opt/mipsel-linux-uclibc/usr/lib/libc.a(tcsetattr.os)
 .bss           0x000000000068eb60        0x0 /opt/mipsel-linux-uclibc/usr/lib/libc.a(malloc.os)
 .bss           0x000000000068eb60        0x0 /opt/mipsel-linux-uclibc/usr/lib/libc.a(calloc.os)
 .bss           0x000000000068eb60        0x0 /opt/mipsel-linux-uclibc/usr/lib/libc.a(realloc.os)
 .bss           0x000000000068eb60        0x0 /opt/mipsel-linux-uclibc/usr/lib/libc.a(free.os)
 .bss           0x000000000068eb60       0x10 /opt/mipsel-linux-uclibc/usr/lib/libc.a(abort.os)
 .bss           0x000000000068eb70        0x0 /opt/mipsel-linux-uclibc/usr/lib/libc.a(system.os)
 .bss           0x000000000068eb70        0x0 /opt/mipsel-linux-uclibc/usr/lib/libc.a(strtol.os)
 .bss           0x000000000068eb70        0x0 /opt/mipsel-linux-uclibc/usr/lib/libc.a(strtoul.os)
 .bss           0x000000000068eb70        0x0 /opt/mipsel-linux-uclibc/usr/lib/libc.a(_stdlib_strto_l.os)
 .bss           0x000000000068eb70        0x0 /opt/mipsel-linux-uclibc/usr/lib/libc.a(qsort.os)
 .bss           0x000000000068eb70        0x0 /opt/mipsel-linux-uclibc/usr/lib/libc.a(strtod.os)
 .bss           0x000000000068eb70        0x0 /opt/mipsel-linux-uclibc/usr/lib/libc.a(__strtofpmax.os)
 .bss           0x000000000068eb70        0x0 /opt/mipsel-linux-uclibc/usr/lib/libc.a(__fp_range_check.os)
 .bss           0x000000000068eb70       0x10 /opt/mipsel-linux-uclibc/usr/lib/libc.a(exit.os)
                0x000000000068eb70                __exit_cleanup
 .bss           0x000000000068eb80        0x0 /opt/mipsel-linux-uclibc/usr/lib/libc.a(execl.os)
 .bss           0x000000000068eb80        0x0 /opt/mipsel-linux-uclibc/usr/lib/libc.a(sysconf.os)
 .bss           0x000000000068eb80        0x0 /opt/mipsel-linux-uclibc/usr/lib/libc.a(usleep.os)
 .bss           0x000000000068eb80       0x20 /opt/mipsel-linux-uclibc/usr/lib/libc.a(__uClibc_main.os)
                0x000000000068eb80                __libc_stack_end
                0x000000000068eb8c                __app_fini
                0x000000000068eb88                __pagesize
                0x000000000068eb84                environ
                0x000000000068eb84                __environ
                0x000000000068eb90                __rtld_fini
 .bss           0x000000000068eba0        0x0 /opt/mipsel-linux-uclibc/usr/lib/libc.a(__longjmp.os)
 .bss           0x000000000068eba0        0x0 /opt/mipsel-linux-uclibc/usr/lib/libc.a(setjmp_aux.os)
 .bss           0x000000000068eba0        0x0 /opt/mipsel-linux-uclibc/usr/lib/libc.a(sigaction.os)
 .bss           0x000000000068eba0        0x0 /opt/mipsel-linux-uclibc/usr/lib/libc.a(clock_getres.os)
 .bss           0x000000000068eba0        0x0 /opt/mipsel-linux-uclibc/usr/lib/libc.a(execve.os)
 .bss           0x000000000068eba0        0x0 /opt/mipsel-linux-uclibc/usr/lib/libc.a(_exit.os)
 .bss           0x000000000068eba0        0x0 /opt/mipsel-linux-uclibc/usr/lib/libc.a(fork.os)
 .bss           0x000000000068eba0        0x0 /opt/mipsel-linux-uclibc/usr/lib/libc.a(fstat.os)
 .bss           0x000000000068eba0        0x0 /opt/mipsel-linux-uclibc/usr/lib/libc.a(getdtablesize.os)
 .bss           0x000000000068eba0        0x0 /opt/mipsel-linux-uclibc/usr/lib/libc.a(getegid.os)
 .bss           0x000000000068eba0        0x0 /opt/mipsel-linux-uclibc/usr/lib/libc.a(getgid.os)
 .bss           0x000000000068eba0        0x0 /opt/mipsel-linux-uclibc/usr/lib/libc.a(getrlimit.os)
 .bss           0x000000000068eba0        0x0 /opt/mipsel-linux-uclibc/usr/lib/libc.a(getuid.os)
 .bss           0x000000000068eba0        0x0 /opt/mipsel-linux-uclibc/usr/lib/libc.a(llseek.os)
 .bss           0x000000000068eba0        0x0 /opt/mipsel-linux-uclibc/usr/lib/libc.a(mremap.os)
 .bss           0x000000000068eba0        0x0 /opt/mipsel-linux-uclibc/usr/lib/libc.a(nanosleep.os)
 .bss           0x000000000068eba0        0x0 /opt/mipsel-linux-uclibc/usr/lib/libc.a(sbrk.os)
 .bss           0x000000000068eba0        0x0 /opt/mipsel-linux-uclibc/usr/lib/libc.a(__syscall_fcntl64.os)
 .bss           0x000000000068eba0        0x0 /opt/mipsel-linux-uclibc/usr/lib/libc.a(__syscall_rt_sigaction.os)
 .bss           0x000000000068eba0        0x0 /opt/mipsel-linux-uclibc/usr/lib/libc.a(wait4.os)
 .bss           0x000000000068eba0        0x0 /opt/mipsel-linux-uclibc/usr/lib/libc.a(xstatconv.os)
 .bss           0x000000000068eba0        0x0 /opt/mipsel-linux-uclibc/usr/lib/libc.a(readdir.os)
 .bss           0x000000000068eba0       0x10 /opt/mipsel-linux-uclibc/usr/lib/libc.a(errno.os)
                0x000000000068eba0                errno
                0x000000000068eba0                __GI_errno
                0x000000000068eba4                __GI_h_errno
                0x000000000068eba0                _errno
                0x000000000068eba4                h_errno
                0x000000000068eba4                _h_errno
 .bss           0x000000000068ebb0        0x0 /opt/mipsel-linux-uclibc/usr/lib/libc.a(_READ.os)
 .bss           0x000000000068ebb0        0x0 /opt/mipsel-linux-uclibc/usr/lib/libc.a(_WRITE.os)
 .bss           0x000000000068ebb0        0x0 /opt/mipsel-linux-uclibc/usr/lib/libc.a(_fwrite.os)
 .bss           0x000000000068ebb0        0x0 /opt/mipsel-linux-uclibc/usr/lib/libc.a(_trans2r.os)
 .bss           0x000000000068ebb0        0x0 /opt/mipsel-linux-uclibc/usr/lib/libc.a(_trans2w.os)
 .bss           0x000000000068ebb0        0x0 /opt/mipsel-linux-uclibc/usr/lib/libc.a(_load_inttype.os)
 .bss           0x000000000068ebb0        0x0 /opt/mipsel-linux-uclibc/usr/lib/libc.a(_store_inttype.os)
 .bss           0x000000000068ebb0        0x0 /opt/mipsel-linux-uclibc/usr/lib/libc.a(_uintmaxtostr.os)
 .bss           0x000000000068ebb0        0x0 /opt/mipsel-linux-uclibc/usr/lib/libc.a(_fpmaxtostr.os)
 .bss           0x000000000068ebb0        0x0 /opt/mipsel-linux-uclibc/usr/lib/libc.a(fgetc_unlocked.os)
 .bss           0x000000000068ebb0        0x0 /opt/mipsel-linux-uclibc/usr/lib/libc.a(memchr.os)
 .bss           0x000000000068ebb0        0x0 /opt/mipsel-linux-uclibc/usr/lib/libc.a(mempcpy.os)
 .bss           0x000000000068ebb0        0x0 /opt/mipsel-linux-uclibc/usr/lib/libc.a(memrchr.os)
 .bss           0x000000000068ebb0        0x0 /opt/mipsel-linux-uclibc/usr/lib/libc.a(_string_syserrmsgs.os)
 .bss           0x000000000068ebb0        0x0 /opt/mipsel-linux-uclibc/usr/lib/libc.a(raise.os)
 .bss           0x000000000068ebb0        0x0 /opt/mipsel-linux-uclibc/usr/lib/libc.a(sigjmp.os)
 .bss           0x000000000068ebb0        0x0 /opt/mipsel-linux-uclibc/usr/lib/libc.a(signal.os)
 .bss           0x000000000068ebb0        0x0 /opt/mipsel-linux-uclibc/usr/lib/libc.a(sigsetops.os)
 .bss           0x000000000068ebb0        0x0 /opt/mipsel-linux-uclibc/usr/lib/libc.a(dl-support.os)
 .bss           0x000000000068ebb0       0x10 /opt/mipsel-linux-uclibc/usr/lib/libc.a(brk.os)
                0x000000000068ebb0                __curbrk
 .bss           0x000000000068ebc0        0x0 /opt/mipsel-linux-uclibc/usr/lib/libc.a(getdents.os)
 .bss           0x000000000068ebc0        0x0 /opt/mipsel-linux-uclibc/usr/lib/libc.a(getpid.os)
 .bss           0x000000000068ebc0        0x0 /opt/mipsel-linux-uclibc/usr/lib/libc.a(kill.os)
 .bss           0x000000000068ebc0        0x0 /opt/mipsel-linux-uclibc/usr/lib/libc.a(_rfill.os)
 .bss           0x000000000068ebc0        0x0 /opt/mipsel-linux-uclibc/usr/lib/libc.a(getdents64.os)
 .bss           0x000000000068ebc0        0x0 /opt/mipsel-linux-uclibc/usr/bin/../lib/gcc/mipsel-linux-uclibc/4.3.3/libgcc.a(_ne_df.o)
 .bss           0x000000000068ebc0        0x0 /opt/mipsel-linux-uclibc/usr/bin/../lib/gcc/mipsel-linux-uclibc/4.3.3/crtend.o
 .bss           0x000000000068ebc0        0x0 /opt/mipsel-linux-uclibc/usr/lib/crtn.o
 *(COMMON)
 COMMON         0x000000000068ebc0     0x1440 platform/gp2x/emu.o
                0x000000000068ebc0                romFileName
                0x000000000068fbc0                localPal
                0x000000000068ffc0                noticeMsg
 COMMON         0x0000000000690000       0x10 platform/gp2x/usbjoy.o
                0x0000000000690000                joys
 COMMON         0x0000000000690010       0x34 gp2x.o
                0x0000000000690010                saved_kbd_termios
 COMMON         0x0000000000690044      0x4b8 platform/common/emu.o
                0x0000000000690044                currentConfig
 COMMON         0x00000000006904fc    0x22268 Pico/Pico.o
                0x00000000006904fc                Pico
 *fill*         0x00000000006b2764        0x4 00
 COMMON         0x00000000006b2768      0x5e8 Pico/Sek.o
                0x00000000006b2768                PicoCpuMM68k
                0x00000000006b28d8                PicoCpuFM68k
 COMMON         0x00000000006b2d50      0x9a0 Pico/Draw.o
                0x00000000006b2d50                DefOutBuff
                0x00000000006b3250                HighSprZ
                0x00000000006b33a0                HighCol
                0x00000000006b34f0                HighPal
 COMMON         0x00000000006b36f0      0x5e8 Pico/cd/Sek.o
                0x00000000006b36f0                PicoCpuMS68k
                0x00000000006b3860                PicoCpuFS68k
 COMMON         0x00000000006b3cd8    0x35a00 Pico/sound/ym2612.o
                0x00000000006b3cd8                ym_tl_tab
                0x00000000006e7cd8                ym_tl_tab2
 COMMON         0x00000000006e96d8    0x80000 cpu/musashi/m68kops.o
                0x00000000006e96d8                m68ki_cycles
                0x00000000007296d8                m68ki_instruction_jump_table
 COMMON         0x00000000007696d8       0xbc cpu/cz80/cz80.o
                0x00000000007696d8                CZ80
 COMMON         0x0000000000769794       0x40 Pico/Debug.o
                0x0000000000769794                old_regs
 COMMON         0x00000000007697d4       0x50 /opt/mipsel-linux-uclibc/usr/lib/libc.a(_ppfs_parsespec.os)
                0x00000000007697d4                _custom_printf_handler
                0x00000000007697fc                _custom_printf_arginfo
 COMMON         0x0000000000769824      0x378 /opt/mipsel-linux-uclibc/usr/lib/libc.a(malloc.os)
                0x0000000000769824                __malloc_state
 COMMON         0x0000000000769b9c       0x80 /opt/mipsel-linux-uclibc/usr/lib/libc.a(signal.os)
                0x0000000000769b9c                _sigintr
                0x0000000000769c1c                . = ALIGN ((. != 0x0)?0x4:0x1)
                0x0000000000769c1c                . = ALIGN (0x4)
                0x0000000000769c1c                . = ALIGN (0x4)
                0x0000000000769c1c                _end = .
                0x0000000000769c1c                PROVIDE (end, .)
                0x0000000000769c1c                . = DATA_SEGMENT_END (.)

.stab
 *(.stab)

.stabstr
 *(.stabstr)

.stab.excl
 *(.stab.excl)

.stab.exclstr
 *(.stab.exclstr)

.stab.index
 *(.stab.index)

.stab.indexstr
 *(.stab.indexstr)

.comment        0x0000000000000000      0x7aa
 *(.comment)
 .comment       0x0000000000000000       0x12 /opt/mipsel-linux-uclibc/usr/lib/crti.o
 .comment       0x0000000000000012       0x12 /opt/mipsel-linux-uclibc/usr/bin/../lib/gcc/mipsel-linux-uclibc/4.3.3/crtbeginT.o
 .comment       0x0000000000000024       0x12 platform/gp2x/main.o
 .comment       0x0000000000000036       0x12 platform/gp2x/menu.o
 .comment       0x0000000000000048       0x12 platform/gp2x/emu.o
 .comment       0x000000000000005a       0x12 platform/gp2x/usbjoy.o
 .comment       0x000000000000006c       0x12 blit.o
 .comment       0x000000000000007e       0x12 gp2x.o
 .comment       0x0000000000000090       0x12 log_io.o
 .comment       0x00000000000000a2       0x12 platform/common/emu.o
 .comment       0x00000000000000b4       0x12 platform/common/menu.o
 .comment       0x00000000000000c6       0x12 platform/common/fonts.o
 .comment       0x00000000000000d8       0x12 platform/common/readpng.o
 .comment       0x00000000000000ea       0x12 platform/common/mp3_helix.o
 .comment       0x00000000000000fc       0x12 Pico/Area.o
 .comment       0x000000000000010e       0x12 Pico/Cart.o
 .comment       0x0000000000000120       0x12 Pico/Memory.o
 .comment       0x0000000000000132       0x12 Pico/Misc.o
 .comment       0x0000000000000144       0x12 Pico/Pico.o
 .comment       0x0000000000000156       0x12 Pico/Sek.o
 .comment       0x0000000000000168       0x12 Pico/VideoPort.o
 .comment       0x000000000000017a       0x12 Pico/Draw2.o
 .comment       0x000000000000018c       0x12 Pico/Draw.o
 .comment       0x000000000000019e       0x12 Pico/Patch.o
 .comment       0x00000000000001b0       0x12 Pico/cd/Pico.o
 .comment       0x00000000000001c2       0x12 Pico/cd/Memory.o
 .comment       0x00000000000001d4       0x12 Pico/cd/Sek.o
 .comment       0x00000000000001e6       0x12 Pico/cd/LC89510.o
 .comment       0x00000000000001f8       0x12 Pico/cd/cd_sys.o
 .comment       0x000000000000020a       0x12 Pico/cd/cd_file.o
 .comment       0x000000000000021c       0x12 Pico/cd/gfx_cd.o
 .comment       0x000000000000022e       0x12 Pico/cd/Area.o
 .comment       0x0000000000000240       0x12 Pico/cd/Misc.o
 .comment       0x0000000000000252       0x12 Pico/cd/pcm.o
 .comment       0x0000000000000264       0x12 Pico/cd/buffering.o
 .comment       0x0000000000000276       0x12 Pico/sound/sound.o
 .comment       0x0000000000000288       0x12 Pico/sound/sn76496.o
 .comment       0x000000000000029a       0x12 Pico/sound/ym2612.o
 .comment       0x00000000000002ac       0x12 Pico/sound/mix.o
 .comment       0x00000000000002be       0x12 zlib/gzio.o
 .comment       0x00000000000002d0       0x12 zlib/inffast.o
 .comment       0x00000000000002e2       0x12 zlib/inflate.o
 .comment       0x00000000000002f4       0x12 zlib/inftrees.o
 .comment       0x0000000000000306       0x12 zlib/trees.o
 .comment       0x0000000000000318       0x12 zlib/deflate.o
 .comment       0x000000000000032a       0x12 zlib/crc32.o
 .comment       0x000000000000033c       0x12 zlib/adler32.o
 .comment       0x000000000000034e       0x12 zlib/zutil.o
 .comment       0x0000000000000360       0x12 zlib/compress.o
 .comment       0x0000000000000372       0x12 zlib/uncompr.o
 .comment       0x0000000000000384       0x12 unzip/unzip.o
 .comment       0x0000000000000396       0x12 unzip/unzip_stream.o
 .comment       0x00000000000003a8       0x12 cpu/musashi/m68kops.o
 .comment       0x00000000000003ba       0x12 cpu/musashi/m68kcpu.o
 .comment       0x00000000000003cc       0x12 cpu/fame/famec.o
 .comment       0x00000000000003de       0x12 cpu/cz80/cz80.o
 .comment       0x00000000000003f0       0x12 Pico/Debug.o
 .comment       0x0000000000000402       0x12 cpu/musashi/m68kdasm.o
 .comment       0x0000000000000414       0x12 /opt/mipsel-linux-uclibc/usr/lib/libpng.a(libpng12_la-png.o)
 .comment       0x0000000000000426       0x12 /opt/mipsel-linux-uclibc/usr/lib/libpng.a(libpng12_la-pngget.o)
 .comment       0x0000000000000438       0x12 /opt/mipsel-linux-uclibc/usr/lib/libpng.a(libpng12_la-pngread.o)
 .comment       0x000000000000044a       0x12 /opt/mipsel-linux-uclibc/usr/lib/libpng.a(libpng12_la-pngrio.o)
 .comment       0x000000000000045c       0x12 /opt/mipsel-linux-uclibc/usr/lib/libpng.a(libpng12_la-pngrtran.o)
 .comment       0x000000000000046e       0x12 /opt/mipsel-linux-uclibc/usr/lib/libpng.a(libpng12_la-pngmem.o)
 .comment       0x0000000000000480       0x12 /opt/mipsel-linux-uclibc/usr/lib/libpng.a(libpng12_la-pngerror.o)
 .comment       0x0000000000000492       0x12 /opt/mipsel-linux-uclibc/usr/lib/libpng.a(libpng12_la-pngrutil.o)
 .comment       0x00000000000004a4       0x12 /opt/mipsel-linux-uclibc/usr/lib/libpng.a(libpng12_la-pngtrans.o)
 .comment       0x00000000000004b6       0x12 /opt/mipsel-linux-uclibc/usr/lib/libpng.a(libpng12_la-pngset.o)
 .comment       0x00000000000004c8       0x12 /opt/mipsel-linux-uclibc/usr/bin/../lib/gcc/mipsel-linux-uclibc/4.3.3/libgcc.a(_fixunssfsi.o)
 .comment       0x00000000000004da       0x12 /opt/mipsel-linux-uclibc/usr/bin/../lib/gcc/mipsel-linux-uclibc/4.3.3/libgcc.a(_fixunsdfsi.o)
 .comment       0x00000000000004ec       0x12 /opt/mipsel-linux-uclibc/usr/bin/../lib/gcc/mipsel-linux-uclibc/4.3.3/libgcc.a(_addsub_sf.o)
 .comment       0x00000000000004fe       0x12 /opt/mipsel-linux-uclibc/usr/bin/../lib/gcc/mipsel-linux-uclibc/4.3.3/libgcc.a(_mul_sf.o)
 .comment       0x0000000000000510       0x12 /opt/mipsel-linux-uclibc/usr/bin/../lib/gcc/mipsel-linux-uclibc/4.3.3/libgcc.a(_div_sf.o)
 .comment       0x0000000000000522       0x12 /opt/mipsel-linux-uclibc/usr/bin/../lib/gcc/mipsel-linux-uclibc/4.3.3/libgcc.a(_ne_sf.o)
 .comment       0x0000000000000534       0x12 /opt/mipsel-linux-uclibc/usr/bin/../lib/gcc/mipsel-linux-uclibc/4.3.3/libgcc.a(_ge_sf.o)
 .comment       0x0000000000000546       0x12 /opt/mipsel-linux-uclibc/usr/bin/../lib/gcc/mipsel-linux-uclibc/4.3.3/libgcc.a(_si_to_sf.o)
 .comment       0x0000000000000558       0x12 /opt/mipsel-linux-uclibc/usr/bin/../lib/gcc/mipsel-linux-uclibc/4.3.3/libgcc.a(_sf_to_si.o)
 .comment       0x000000000000056a       0x12 /opt/mipsel-linux-uclibc/usr/bin/../lib/gcc/mipsel-linux-uclibc/4.3.3/libgcc.a(_sf_to_df.o)
 .comment       0x000000000000057c       0x12 /opt/mipsel-linux-uclibc/usr/bin/../lib/gcc/mipsel-linux-uclibc/4.3.3/libgcc.a(_thenan_sf.o)
 .comment       0x000000000000058e       0x12 /opt/mipsel-linux-uclibc/usr/bin/../lib/gcc/mipsel-linux-uclibc/4.3.3/libgcc.a(_usi_to_sf.o)
 .comment       0x00000000000005a0       0x12 /opt/mipsel-linux-uclibc/usr/bin/../lib/gcc/mipsel-linux-uclibc/4.3.3/libgcc.a(_addsub_df.o)
 .comment       0x00000000000005b2       0x12 /opt/mipsel-linux-uclibc/usr/bin/../lib/gcc/mipsel-linux-uclibc/4.3.3/libgcc.a(_mul_df.o)
 .comment       0x00000000000005c4       0x12 /opt/mipsel-linux-uclibc/usr/bin/../lib/gcc/mipsel-linux-uclibc/4.3.3/libgcc.a(_div_df.o)
 .comment       0x00000000000005d6       0x12 /opt/mipsel-linux-uclibc/usr/bin/../lib/gcc/mipsel-linux-uclibc/4.3.3/libgcc.a(_eq_df.o)
 .comment       0x00000000000005e8       0x12 /opt/mipsel-linux-uclibc/usr/bin/../lib/gcc/mipsel-linux-uclibc/4.3.3/libgcc.a(_gt_df.o)
 .comment       0x00000000000005fa       0x12 /opt/mipsel-linux-uclibc/usr/bin/../lib/gcc/mipsel-linux-uclibc/4.3.3/libgcc.a(_ge_df.o)
 .comment       0x000000000000060c       0x12 /opt/mipsel-linux-uclibc/usr/bin/../lib/gcc/mipsel-linux-uclibc/4.3.3/libgcc.a(_lt_df.o)
 .comment       0x000000000000061e       0x12 /opt/mipsel-linux-uclibc/usr/bin/../lib/gcc/mipsel-linux-uclibc/4.3.3/libgcc.a(_le_df.o)
 .comment       0x0000000000000630       0x12 /opt/mipsel-linux-uclibc/usr/bin/../lib/gcc/mipsel-linux-uclibc/4.3.3/libgcc.a(_si_to_df.o)
 .comment       0x0000000000000642       0x12 /opt/mipsel-linux-uclibc/usr/bin/../lib/gcc/mipsel-linux-uclibc/4.3.3/libgcc.a(_df_to_si.o)
 .comment       0x0000000000000654       0x12 /opt/mipsel-linux-uclibc/usr/bin/../lib/gcc/mipsel-linux-uclibc/4.3.3/libgcc.a(_make_df.o)
 .comment       0x0000000000000666       0x12 /opt/mipsel-linux-uclibc/usr/bin/../lib/gcc/mipsel-linux-uclibc/4.3.3/libgcc.a(_df_to_sf.o)
 .comment       0x0000000000000678       0x12 /opt/mipsel-linux-uclibc/usr/bin/../lib/gcc/mipsel-linux-uclibc/4.3.3/libgcc.a(_thenan_df.o)
 .comment       0x000000000000068a       0x12 /opt/mipsel-linux-uclibc/usr/bin/../lib/gcc/mipsel-linux-uclibc/4.3.3/libgcc.a(_usi_to_df.o)
 .comment       0x000000000000069c       0x12 /opt/mipsel-linux-uclibc/usr/bin/../lib/gcc/mipsel-linux-uclibc/4.3.3/libgcc.a(_lshrdi3.o)
 .comment       0x00000000000006ae       0x12 /opt/mipsel-linux-uclibc/usr/bin/../lib/gcc/mipsel-linux-uclibc/4.3.3/libgcc.a(_ashldi3.o)
 .comment       0x00000000000006c0       0x12 /opt/mipsel-linux-uclibc/usr/bin/../lib/gcc/mipsel-linux-uclibc/4.3.3/libgcc.a(_ucmpdi2.o)
 .comment       0x00000000000006d2       0x12 /opt/mipsel-linux-uclibc/usr/bin/../lib/gcc/mipsel-linux-uclibc/4.3.3/libgcc.a(_clzsi2.o)
 .comment       0x00000000000006e4       0x12 /opt/mipsel-linux-uclibc/usr/bin/../lib/gcc/mipsel-linux-uclibc/4.3.3/libgcc.a(_pack_sf.o)
 .comment       0x00000000000006f6       0x12 /opt/mipsel-linux-uclibc/usr/bin/../lib/gcc/mipsel-linux-uclibc/4.3.3/libgcc.a(_unpack_sf.o)
 .comment       0x0000000000000708       0x12 /opt/mipsel-linux-uclibc/usr/bin/../lib/gcc/mipsel-linux-uclibc/4.3.3/libgcc.a(_fpcmp_parts_sf.o)
 .comment       0x000000000000071a       0x12 /opt/mipsel-linux-uclibc/usr/bin/../lib/gcc/mipsel-linux-uclibc/4.3.3/libgcc.a(_make_sf.o)
 .comment       0x000000000000072c       0x12 /opt/mipsel-linux-uclibc/usr/bin/../lib/gcc/mipsel-linux-uclibc/4.3.3/libgcc.a(_pack_df.o)
 .comment       0x000000000000073e       0x12 /opt/mipsel-linux-uclibc/usr/bin/../lib/gcc/mipsel-linux-uclibc/4.3.3/libgcc.a(_unpack_df.o)
 .comment       0x0000000000000750       0x12 /opt/mipsel-linux-uclibc/usr/bin/../lib/gcc/mipsel-linux-uclibc/4.3.3/libgcc.a(_fpcmp_parts_df.o)
 .comment       0x0000000000000762       0x12 /opt/mipsel-linux-uclibc/usr/bin/../lib/gcc/mipsel-linux-uclibc/4.3.3/libgcc.a(_clz.o)
 .comment       0x0000000000000774       0x12 /opt/mipsel-linux-uclibc/usr/bin/../lib/gcc/mipsel-linux-uclibc/4.3.3/libgcc.a(_ne_df.o)
 .comment       0x0000000000000786       0x12 /opt/mipsel-linux-uclibc/usr/bin/../lib/gcc/mipsel-linux-uclibc/4.3.3/crtend.o
 .comment       0x0000000000000798       0x12 /opt/mipsel-linux-uclibc/usr/lib/crtn.o

.debug
 *(.debug)

.line
 *(.line)

.debug_srcinfo
 *(.debug_srcinfo)

.debug_sfnames
 *(.debug_sfnames)

.debug_aranges  0x0000000000000000      0x480
 *(.debug_aranges)
 .debug_aranges
                0x0000000000000000       0x20 /opt/mipsel-linux-uclibc/usr/bin/../lib/gcc/mipsel-linux-uclibc/4.3.3/libgcc.a(_fixunssfsi.o)
 .debug_aranges
                0x0000000000000020       0x20 /opt/mipsel-linux-uclibc/usr/bin/../lib/gcc/mipsel-linux-uclibc/4.3.3/libgcc.a(_fixunsdfsi.o)
 .debug_aranges
                0x0000000000000040       0x20 /opt/mipsel-linux-uclibc/usr/bin/../lib/gcc/mipsel-linux-uclibc/4.3.3/libgcc.a(_addsub_sf.o)
 .debug_aranges
                0x0000000000000060       0x20 /opt/mipsel-linux-uclibc/usr/bin/../lib/gcc/mipsel-linux-uclibc/4.3.3/libgcc.a(_mul_sf.o)
 .debug_aranges
                0x0000000000000080       0x20 /opt/mipsel-linux-uclibc/usr/bin/../lib/gcc/mipsel-linux-uclibc/4.3.3/libgcc.a(_div_sf.o)
 .debug_aranges
                0x00000000000000a0       0x20 /opt/mipsel-linux-uclibc/usr/bin/../lib/gcc/mipsel-linux-uclibc/4.3.3/libgcc.a(_ne_sf.o)
 .debug_aranges
                0x00000000000000c0       0x20 /opt/mipsel-linux-uclibc/usr/bin/../lib/gcc/mipsel-linux-uclibc/4.3.3/libgcc.a(_ge_sf.o)
 .debug_aranges
                0x00000000000000e0       0x20 /opt/mipsel-linux-uclibc/usr/bin/../lib/gcc/mipsel-linux-uclibc/4.3.3/libgcc.a(_si_to_sf.o)
 .debug_aranges
                0x0000000000000100       0x20 /opt/mipsel-linux-uclibc/usr/bin/../lib/gcc/mipsel-linux-uclibc/4.3.3/libgcc.a(_sf_to_si.o)
 .debug_aranges
                0x0000000000000120       0x20 /opt/mipsel-linux-uclibc/usr/bin/../lib/gcc/mipsel-linux-uclibc/4.3.3/libgcc.a(_sf_to_df.o)
 .debug_aranges
                0x0000000000000140       0x20 /opt/mipsel-linux-uclibc/usr/bin/../lib/gcc/mipsel-linux-uclibc/4.3.3/libgcc.a(_usi_to_sf.o)
 .debug_aranges
                0x0000000000000160       0x20 /opt/mipsel-linux-uclibc/usr/bin/../lib/gcc/mipsel-linux-uclibc/4.3.3/libgcc.a(_addsub_df.o)
 .debug_aranges
                0x0000000000000180       0x20 /opt/mipsel-linux-uclibc/usr/bin/../lib/gcc/mipsel-linux-uclibc/4.3.3/libgcc.a(_mul_df.o)
 .debug_aranges
                0x00000000000001a0       0x20 /opt/mipsel-linux-uclibc/usr/bin/../lib/gcc/mipsel-linux-uclibc/4.3.3/libgcc.a(_div_df.o)
 .debug_aranges
                0x00000000000001c0       0x20 /opt/mipsel-linux-uclibc/usr/bin/../lib/gcc/mipsel-linux-uclibc/4.3.3/libgcc.a(_eq_df.o)
 .debug_aranges
                0x00000000000001e0       0x20 /opt/mipsel-linux-uclibc/usr/bin/../lib/gcc/mipsel-linux-uclibc/4.3.3/libgcc.a(_gt_df.o)
 .debug_aranges
                0x0000000000000200       0x20 /opt/mipsel-linux-uclibc/usr/bin/../lib/gcc/mipsel-linux-uclibc/4.3.3/libgcc.a(_ge_df.o)
 .debug_aranges
                0x0000000000000220       0x20 /opt/mipsel-linux-uclibc/usr/bin/../lib/gcc/mipsel-linux-uclibc/4.3.3/libgcc.a(_lt_df.o)
 .debug_aranges
                0x0000000000000240       0x20 /opt/mipsel-linux-uclibc/usr/bin/../lib/gcc/mipsel-linux-uclibc/4.3.3/libgcc.a(_le_df.o)
 .debug_aranges
                0x0000000000000260       0x20 /opt/mipsel-linux-uclibc/usr/bin/../lib/gcc/mipsel-linux-uclibc/4.3.3/libgcc.a(_si_to_df.o)
 .debug_aranges
                0x0000000000000280       0x20 /opt/mipsel-linux-uclibc/usr/bin/../lib/gcc/mipsel-linux-uclibc/4.3.3/libgcc.a(_df_to_si.o)
 .debug_aranges
                0x00000000000002a0       0x20 /opt/mipsel-linux-uclibc/usr/bin/../lib/gcc/mipsel-linux-uclibc/4.3.3/libgcc.a(_make_df.o)
 .debug_aranges
                0x00000000000002c0       0x20 /opt/mipsel-linux-uclibc/usr/bin/../lib/gcc/mipsel-linux-uclibc/4.3.3/libgcc.a(_df_to_sf.o)
 .debug_aranges
                0x00000000000002e0       0x20 /opt/mipsel-linux-uclibc/usr/bin/../lib/gcc/mipsel-linux-uclibc/4.3.3/libgcc.a(_usi_to_df.o)
 .debug_aranges
                0x0000000000000300       0x20 /opt/mipsel-linux-uclibc/usr/bin/../lib/gcc/mipsel-linux-uclibc/4.3.3/libgcc.a(_lshrdi3.o)
 .debug_aranges
                0x0000000000000320       0x20 /opt/mipsel-linux-uclibc/usr/bin/../lib/gcc/mipsel-linux-uclibc/4.3.3/libgcc.a(_ashldi3.o)
 .debug_aranges
                0x0000000000000340       0x20 /opt/mipsel-linux-uclibc/usr/bin/../lib/gcc/mipsel-linux-uclibc/4.3.3/libgcc.a(_ucmpdi2.o)
 .debug_aranges
                0x0000000000000360       0x20 /opt/mipsel-linux-uclibc/usr/bin/../lib/gcc/mipsel-linux-uclibc/4.3.3/libgcc.a(_clzsi2.o)
 .debug_aranges
                0x0000000000000380       0x20 /opt/mipsel-linux-uclibc/usr/bin/../lib/gcc/mipsel-linux-uclibc/4.3.3/libgcc.a(_pack_sf.o)
 .debug_aranges
                0x00000000000003a0       0x20 /opt/mipsel-linux-uclibc/usr/bin/../lib/gcc/mipsel-linux-uclibc/4.3.3/libgcc.a(_unpack_sf.o)
 .debug_aranges
                0x00000000000003c0       0x20 /opt/mipsel-linux-uclibc/usr/bin/../lib/gcc/mipsel-linux-uclibc/4.3.3/libgcc.a(_fpcmp_parts_sf.o)
 .debug_aranges
                0x00000000000003e0       0x20 /opt/mipsel-linux-uclibc/usr/bin/../lib/gcc/mipsel-linux-uclibc/4.3.3/libgcc.a(_make_sf.o)
 .debug_aranges
                0x0000000000000400       0x20 /opt/mipsel-linux-uclibc/usr/bin/../lib/gcc/mipsel-linux-uclibc/4.3.3/libgcc.a(_pack_df.o)
 .debug_aranges
                0x0000000000000420       0x20 /opt/mipsel-linux-uclibc/usr/bin/../lib/gcc/mipsel-linux-uclibc/4.3.3/libgcc.a(_unpack_df.o)
 .debug_aranges
                0x0000000000000440       0x20 /opt/mipsel-linux-uclibc/usr/bin/../lib/gcc/mipsel-linux-uclibc/4.3.3/libgcc.a(_fpcmp_parts_df.o)
 .debug_aranges
                0x0000000000000460       0x20 /opt/mipsel-linux-uclibc/usr/bin/../lib/gcc/mipsel-linux-uclibc/4.3.3/libgcc.a(_ne_df.o)

.debug_pubnames
                0x0000000000000000      0x50c
 *(.debug_pubnames)
 .debug_pubnames
                0x0000000000000000       0x23 /opt/mipsel-linux-uclibc/usr/bin/../lib/gcc/mipsel-linux-uclibc/4.3.3/libgcc.a(_fixunssfsi.o)
 .debug_pubnames
                0x0000000000000023       0x23 /opt/mipsel-linux-uclibc/usr/bin/../lib/gcc/mipsel-linux-uclibc/4.3.3/libgcc.a(_fixunsdfsi.o)
 .debug_pubnames
                0x0000000000000046       0x2c /opt/mipsel-linux-uclibc/usr/bin/../lib/gcc/mipsel-linux-uclibc/4.3.3/libgcc.a(_addsub_sf.o)
 .debug_pubnames
                0x0000000000000072       0x1f /opt/mipsel-linux-uclibc/usr/bin/../lib/gcc/mipsel-linux-uclibc/4.3.3/libgcc.a(_mul_sf.o)
 .debug_pubnames
                0x0000000000000091       0x1f /opt/mipsel-linux-uclibc/usr/bin/../lib/gcc/mipsel-linux-uclibc/4.3.3/libgcc.a(_div_sf.o)
 .debug_pubnames
                0x00000000000000b0       0x1e /opt/mipsel-linux-uclibc/usr/bin/../lib/gcc/mipsel-linux-uclibc/4.3.3/libgcc.a(_ne_sf.o)
 .debug_pubnames
                0x00000000000000ce       0x1e /opt/mipsel-linux-uclibc/usr/bin/../lib/gcc/mipsel-linux-uclibc/4.3.3/libgcc.a(_ge_sf.o)
 .debug_pubnames
                0x00000000000000ec       0x22 /opt/mipsel-linux-uclibc/usr/bin/../lib/gcc/mipsel-linux-uclibc/4.3.3/libgcc.a(_si_to_sf.o)
 .debug_pubnames
                0x000000000000010e       0x20 /opt/mipsel-linux-uclibc/usr/bin/../lib/gcc/mipsel-linux-uclibc/4.3.3/libgcc.a(_sf_to_si.o)
 .debug_pubnames
                0x000000000000012e       0x24 /opt/mipsel-linux-uclibc/usr/bin/../lib/gcc/mipsel-linux-uclibc/4.3.3/libgcc.a(_sf_to_df.o)
 .debug_pubnames
                0x0000000000000152       0x22 /opt/mipsel-linux-uclibc/usr/bin/../lib/gcc/mipsel-linux-uclibc/4.3.3/libgcc.a(_thenan_sf.o)
 .debug_pubnames
                0x0000000000000174       0x24 /opt/mipsel-linux-uclibc/usr/bin/../lib/gcc/mipsel-linux-uclibc/4.3.3/libgcc.a(_usi_to_sf.o)
 .debug_pubnames
                0x0000000000000198       0x2c /opt/mipsel-linux-uclibc/usr/bin/../lib/gcc/mipsel-linux-uclibc/4.3.3/libgcc.a(_addsub_df.o)
 .debug_pubnames
                0x00000000000001c4       0x1f /opt/mipsel-linux-uclibc/usr/bin/../lib/gcc/mipsel-linux-uclibc/4.3.3/libgcc.a(_mul_df.o)
 .debug_pubnames
                0x00000000000001e3       0x1f /opt/mipsel-linux-uclibc/usr/bin/../lib/gcc/mipsel-linux-uclibc/4.3.3/libgcc.a(_div_df.o)
 .debug_pubnames
                0x0000000000000202       0x1e /opt/mipsel-linux-uclibc/usr/bin/../lib/gcc/mipsel-linux-uclibc/4.3.3/libgcc.a(_eq_df.o)
 .debug_pubnames
                0x0000000000000220       0x1e /opt/mipsel-linux-uclibc/usr/bin/../lib/gcc/mipsel-linux-uclibc/4.3.3/libgcc.a(_gt_df.o)
 .debug_pubnames
                0x000000000000023e       0x1e /opt/mipsel-linux-uclibc/usr/bin/../lib/gcc/mipsel-linux-uclibc/4.3.3/libgcc.a(_ge_df.o)
 .debug_pubnames
                0x000000000000025c       0x1e /opt/mipsel-linux-uclibc/usr/bin/../lib/gcc/mipsel-linux-uclibc/4.3.3/libgcc.a(_lt_df.o)
 .debug_pubnames
                0x000000000000027a       0x1e /opt/mipsel-linux-uclibc/usr/bin/../lib/gcc/mipsel-linux-uclibc/4.3.3/libgcc.a(_le_df.o)
 .debug_pubnames
                0x0000000000000298       0x22 /opt/mipsel-linux-uclibc/usr/bin/../lib/gcc/mipsel-linux-uclibc/4.3.3/libgcc.a(_si_to_df.o)
 .debug_pubnames
                0x00000000000002ba       0x20 /opt/mipsel-linux-uclibc/usr/bin/../lib/gcc/mipsel-linux-uclibc/4.3.3/libgcc.a(_df_to_si.o)
 .debug_pubnames
                0x00000000000002da       0x20 /opt/mipsel-linux-uclibc/usr/bin/../lib/gcc/mipsel-linux-uclibc/4.3.3/libgcc.a(_make_df.o)
 .debug_pubnames
                0x00000000000002fa       0x23 /opt/mipsel-linux-uclibc/usr/bin/../lib/gcc/mipsel-linux-uclibc/4.3.3/libgcc.a(_df_to_sf.o)
 .debug_pubnames
                0x000000000000031d       0x22 /opt/mipsel-linux-uclibc/usr/bin/../lib/gcc/mipsel-linux-uclibc/4.3.3/libgcc.a(_thenan_df.o)
 .debug_pubnames
                0x000000000000033f       0x24 /opt/mipsel-linux-uclibc/usr/bin/../lib/gcc/mipsel-linux-uclibc/4.3.3/libgcc.a(_usi_to_df.o)
 .debug_pubnames
                0x0000000000000363       0x20 /opt/mipsel-linux-uclibc/usr/bin/../lib/gcc/mipsel-linux-uclibc/4.3.3/libgcc.a(_lshrdi3.o)
 .debug_pubnames
                0x0000000000000383       0x20 /opt/mipsel-linux-uclibc/usr/bin/../lib/gcc/mipsel-linux-uclibc/4.3.3/libgcc.a(_ashldi3.o)
 .debug_pubnames
                0x00000000000003a3       0x20 /opt/mipsel-linux-uclibc/usr/bin/../lib/gcc/mipsel-linux-uclibc/4.3.3/libgcc.a(_ucmpdi2.o)
 .debug_pubnames
                0x00000000000003c3       0x1f /opt/mipsel-linux-uclibc/usr/bin/../lib/gcc/mipsel-linux-uclibc/4.3.3/libgcc.a(_clzsi2.o)
 .debug_pubnames
                0x00000000000003e2       0x1f /opt/mipsel-linux-uclibc/usr/bin/../lib/gcc/mipsel-linux-uclibc/4.3.3/libgcc.a(_pack_sf.o)
 .debug_pubnames
                0x0000000000000401       0x21 /opt/mipsel-linux-uclibc/usr/bin/../lib/gcc/mipsel-linux-uclibc/4.3.3/libgcc.a(_unpack_sf.o)
 .debug_pubnames
                0x0000000000000422       0x26 /opt/mipsel-linux-uclibc/usr/bin/../lib/gcc/mipsel-linux-uclibc/4.3.3/libgcc.a(_fpcmp_parts_sf.o)
 .debug_pubnames
                0x0000000000000448       0x20 /opt/mipsel-linux-uclibc/usr/bin/../lib/gcc/mipsel-linux-uclibc/4.3.3/libgcc.a(_make_sf.o)
 .debug_pubnames
                0x0000000000000468       0x1f /opt/mipsel-linux-uclibc/usr/bin/../lib/gcc/mipsel-linux-uclibc/4.3.3/libgcc.a(_pack_df.o)
 .debug_pubnames
                0x0000000000000487       0x21 /opt/mipsel-linux-uclibc/usr/bin/../lib/gcc/mipsel-linux-uclibc/4.3.3/libgcc.a(_unpack_df.o)
 .debug_pubnames
                0x00000000000004a8       0x26 /opt/mipsel-linux-uclibc/usr/bin/../lib/gcc/mipsel-linux-uclibc/4.3.3/libgcc.a(_fpcmp_parts_df.o)
 .debug_pubnames
                0x00000000000004ce       0x20 /opt/mipsel-linux-uclibc/usr/bin/../lib/gcc/mipsel-linux-uclibc/4.3.3/libgcc.a(_clz.o)
 .debug_pubnames
                0x00000000000004ee       0x1e /opt/mipsel-linux-uclibc/usr/bin/../lib/gcc/mipsel-linux-uclibc/4.3.3/libgcc.a(_ne_df.o)

.debug_info     0x0000000000000000     0x5f5c
 *(.debug_info .gnu.linkonce.wi.*)
 .debug_info    0x0000000000000000       0xd5 /opt/mipsel-linux-uclibc/usr/bin/../lib/gcc/mipsel-linux-uclibc/4.3.3/libgcc.a(_fixunssfsi.o)
 .debug_info    0x00000000000000d5       0xd5 /opt/mipsel-linux-uclibc/usr/bin/../lib/gcc/mipsel-linux-uclibc/4.3.3/libgcc.a(_fixunsdfsi.o)
 .debug_info    0x00000000000001aa      0x499 /opt/mipsel-linux-uclibc/usr/bin/../lib/gcc/mipsel-linux-uclibc/4.3.3/libgcc.a(_addsub_sf.o)
 .debug_info    0x0000000000000643      0x43e /opt/mipsel-linux-uclibc/usr/bin/../lib/gcc/mipsel-linux-uclibc/4.3.3/libgcc.a(_mul_sf.o)
 .debug_info    0x0000000000000a81      0x3f3 /opt/mipsel-linux-uclibc/usr/bin/../lib/gcc/mipsel-linux-uclibc/4.3.3/libgcc.a(_div_sf.o)
 .debug_info    0x0000000000000e74      0x290 /opt/mipsel-linux-uclibc/usr/bin/../lib/gcc/mipsel-linux-uclibc/4.3.3/libgcc.a(_ne_sf.o)
 .debug_info    0x0000000000001104      0x290 /opt/mipsel-linux-uclibc/usr/bin/../lib/gcc/mipsel-linux-uclibc/4.3.3/libgcc.a(_ge_sf.o)
 .debug_info    0x0000000000001394      0x214 /opt/mipsel-linux-uclibc/usr/bin/../lib/gcc/mipsel-linux-uclibc/4.3.3/libgcc.a(_si_to_sf.o)
 .debug_info    0x00000000000015a8      0x2c1 /opt/mipsel-linux-uclibc/usr/bin/../lib/gcc/mipsel-linux-uclibc/4.3.3/libgcc.a(_sf_to_si.o)
 .debug_info    0x0000000000001869      0x245 /opt/mipsel-linux-uclibc/usr/bin/../lib/gcc/mipsel-linux-uclibc/4.3.3/libgcc.a(_sf_to_df.o)
 .debug_info    0x0000000000001aae      0x160 /opt/mipsel-linux-uclibc/usr/bin/../lib/gcc/mipsel-linux-uclibc/4.3.3/libgcc.a(_thenan_sf.o)
 .debug_info    0x0000000000001c0e      0x213 /opt/mipsel-linux-uclibc/usr/bin/../lib/gcc/mipsel-linux-uclibc/4.3.3/libgcc.a(_usi_to_sf.o)
 .debug_info    0x0000000000001e21      0x4a7 /opt/mipsel-linux-uclibc/usr/bin/../lib/gcc/mipsel-linux-uclibc/4.3.3/libgcc.a(_addsub_df.o)
 .debug_info    0x00000000000022c8      0x4ee /opt/mipsel-linux-uclibc/usr/bin/../lib/gcc/mipsel-linux-uclibc/4.3.3/libgcc.a(_mul_df.o)
 .debug_info    0x00000000000027b6      0x401 /opt/mipsel-linux-uclibc/usr/bin/../lib/gcc/mipsel-linux-uclibc/4.3.3/libgcc.a(_div_df.o)
 .debug_info    0x0000000000002bb7      0x29e /opt/mipsel-linux-uclibc/usr/bin/../lib/gcc/mipsel-linux-uclibc/4.3.3/libgcc.a(_eq_df.o)
 .debug_info    0x0000000000002e55      0x29e /opt/mipsel-linux-uclibc/usr/bin/../lib/gcc/mipsel-linux-uclibc/4.3.3/libgcc.a(_gt_df.o)
 .debug_info    0x00000000000030f3      0x29e /opt/mipsel-linux-uclibc/usr/bin/../lib/gcc/mipsel-linux-uclibc/4.3.3/libgcc.a(_ge_df.o)
 .debug_info    0x0000000000003391      0x29e /opt/mipsel-linux-uclibc/usr/bin/../lib/gcc/mipsel-linux-uclibc/4.3.3/libgcc.a(_lt_df.o)
 .debug_info    0x000000000000362f      0x29e /opt/mipsel-linux-uclibc/usr/bin/../lib/gcc/mipsel-linux-uclibc/4.3.3/libgcc.a(_le_df.o)
 .debug_info    0x00000000000038cd      0x214 /opt/mipsel-linux-uclibc/usr/bin/../lib/gcc/mipsel-linux-uclibc/4.3.3/libgcc.a(_si_to_df.o)
 .debug_info    0x0000000000003ae1      0x2cd /opt/mipsel-linux-uclibc/usr/bin/../lib/gcc/mipsel-linux-uclibc/4.3.3/libgcc.a(_df_to_si.o)
 .debug_info    0x0000000000003dae      0x1d7 /opt/mipsel-linux-uclibc/usr/bin/../lib/gcc/mipsel-linux-uclibc/4.3.3/libgcc.a(_make_df.o)
 .debug_info    0x0000000000003f85      0x261 /opt/mipsel-linux-uclibc/usr/bin/../lib/gcc/mipsel-linux-uclibc/4.3.3/libgcc.a(_df_to_sf.o)
 .debug_info    0x00000000000041e6      0x160 /opt/mipsel-linux-uclibc/usr/bin/../lib/gcc/mipsel-linux-uclibc/4.3.3/libgcc.a(_thenan_df.o)
 .debug_info    0x0000000000004346      0x213 /opt/mipsel-linux-uclibc/usr/bin/../lib/gcc/mipsel-linux-uclibc/4.3.3/libgcc.a(_usi_to_df.o)
 .debug_info    0x0000000000004559      0x1a4 /opt/mipsel-linux-uclibc/usr/bin/../lib/gcc/mipsel-linux-uclibc/4.3.3/libgcc.a(_lshrdi3.o)
 .debug_info    0x00000000000046fd      0x1a1 /opt/mipsel-linux-uclibc/usr/bin/../lib/gcc/mipsel-linux-uclibc/4.3.3/libgcc.a(_ashldi3.o)
 .debug_info    0x000000000000489e      0x162 /opt/mipsel-linux-uclibc/usr/bin/../lib/gcc/mipsel-linux-uclibc/4.3.3/libgcc.a(_ucmpdi2.o)
 .debug_info    0x0000000000004a00      0x134 /opt/mipsel-linux-uclibc/usr/bin/../lib/gcc/mipsel-linux-uclibc/4.3.3/libgcc.a(_clzsi2.o)
 .debug_info    0x0000000000004b34      0x2ee /opt/mipsel-linux-uclibc/usr/bin/../lib/gcc/mipsel-linux-uclibc/4.3.3/libgcc.a(_pack_sf.o)
 .debug_info    0x0000000000004e22      0x25e /opt/mipsel-linux-uclibc/usr/bin/../lib/gcc/mipsel-linux-uclibc/4.3.3/libgcc.a(_unpack_sf.o)
 .debug_info    0x0000000000005080      0x21d /opt/mipsel-linux-uclibc/usr/bin/../lib/gcc/mipsel-linux-uclibc/4.3.3/libgcc.a(_fpcmp_parts_sf.o)
 .debug_info    0x000000000000529d      0x1d7 /opt/mipsel-linux-uclibc/usr/bin/../lib/gcc/mipsel-linux-uclibc/4.3.3/libgcc.a(_make_sf.o)
 .debug_info    0x0000000000005474      0x2fc /opt/mipsel-linux-uclibc/usr/bin/../lib/gcc/mipsel-linux-uclibc/4.3.3/libgcc.a(_pack_df.o)
 .debug_info    0x0000000000005770      0x26c /opt/mipsel-linux-uclibc/usr/bin/../lib/gcc/mipsel-linux-uclibc/4.3.3/libgcc.a(_unpack_df.o)
 .debug_info    0x00000000000059dc      0x21d /opt/mipsel-linux-uclibc/usr/bin/../lib/gcc/mipsel-linux-uclibc/4.3.3/libgcc.a(_fpcmp_parts_df.o)
 .debug_info    0x0000000000005bf9       0xc5 /opt/mipsel-linux-uclibc/usr/bin/../lib/gcc/mipsel-linux-uclibc/4.3.3/libgcc.a(_clz.o)
 .debug_info    0x0000000000005cbe      0x29e /opt/mipsel-linux-uclibc/usr/bin/../lib/gcc/mipsel-linux-uclibc/4.3.3/libgcc.a(_ne_df.o)

.debug_abbrev   0x0000000000000000     0x330a
 *(.debug_abbrev)
 .debug_abbrev  0x0000000000000000       0x69 /opt/mipsel-linux-uclibc/usr/bin/../lib/gcc/mipsel-linux-uclibc/4.3.3/libgcc.a(_fixunssfsi.o)
 .debug_abbrev  0x0000000000000069       0x69 /opt/mipsel-linux-uclibc/usr/bin/../lib/gcc/mipsel-linux-uclibc/4.3.3/libgcc.a(_fixunsdfsi.o)
 .debug_abbrev  0x00000000000000d2      0x1f0 /opt/mipsel-linux-uclibc/usr/bin/../lib/gcc/mipsel-linux-uclibc/4.3.3/libgcc.a(_addsub_sf.o)
 .debug_abbrev  0x00000000000002c2      0x224 /opt/mipsel-linux-uclibc/usr/bin/../lib/gcc/mipsel-linux-uclibc/4.3.3/libgcc.a(_mul_sf.o)
 .debug_abbrev  0x00000000000004e6      0x20c /opt/mipsel-linux-uclibc/usr/bin/../lib/gcc/mipsel-linux-uclibc/4.3.3/libgcc.a(_div_sf.o)
 .debug_abbrev  0x00000000000006f2      0x15d /opt/mipsel-linux-uclibc/usr/bin/../lib/gcc/mipsel-linux-uclibc/4.3.3/libgcc.a(_ne_sf.o)
 .debug_abbrev  0x000000000000084f      0x15d /opt/mipsel-linux-uclibc/usr/bin/../lib/gcc/mipsel-linux-uclibc/4.3.3/libgcc.a(_ge_sf.o)
 .debug_abbrev  0x00000000000009ac      0x149 /opt/mipsel-linux-uclibc/usr/bin/../lib/gcc/mipsel-linux-uclibc/4.3.3/libgcc.a(_si_to_sf.o)
 .debug_abbrev  0x0000000000000af5      0x182 /opt/mipsel-linux-uclibc/usr/bin/../lib/gcc/mipsel-linux-uclibc/4.3.3/libgcc.a(_sf_to_si.o)
 .debug_abbrev  0x0000000000000c77      0x134 /opt/mipsel-linux-uclibc/usr/bin/../lib/gcc/mipsel-linux-uclibc/4.3.3/libgcc.a(_sf_to_df.o)
 .debug_abbrev  0x0000000000000dab       0xc3 /opt/mipsel-linux-uclibc/usr/bin/../lib/gcc/mipsel-linux-uclibc/4.3.3/libgcc.a(_thenan_sf.o)
 .debug_abbrev  0x0000000000000e6e      0x158 /opt/mipsel-linux-uclibc/usr/bin/../lib/gcc/mipsel-linux-uclibc/4.3.3/libgcc.a(_usi_to_sf.o)
 .debug_abbrev  0x0000000000000fc6      0x1f0 /opt/mipsel-linux-uclibc/usr/bin/../lib/gcc/mipsel-linux-uclibc/4.3.3/libgcc.a(_addsub_df.o)
 .debug_abbrev  0x00000000000011b6      0x213 /opt/mipsel-linux-uclibc/usr/bin/../lib/gcc/mipsel-linux-uclibc/4.3.3/libgcc.a(_mul_df.o)
 .debug_abbrev  0x00000000000013c9      0x20c /opt/mipsel-linux-uclibc/usr/bin/../lib/gcc/mipsel-linux-uclibc/4.3.3/libgcc.a(_div_df.o)
 .debug_abbrev  0x00000000000015d5      0x15d /opt/mipsel-linux-uclibc/usr/bin/../lib/gcc/mipsel-linux-uclibc/4.3.3/libgcc.a(_eq_df.o)
 .debug_abbrev  0x0000000000001732      0x15d /opt/mipsel-linux-uclibc/usr/bin/../lib/gcc/mipsel-linux-uclibc/4.3.3/libgcc.a(_gt_df.o)
 .debug_abbrev  0x000000000000188f      0x15d /opt/mipsel-linux-uclibc/usr/bin/../lib/gcc/mipsel-linux-uclibc/4.3.3/libgcc.a(_ge_df.o)
 .debug_abbrev  0x00000000000019ec      0x15d /opt/mipsel-linux-uclibc/usr/bin/../lib/gcc/mipsel-linux-uclibc/4.3.3/libgcc.a(_lt_df.o)
 .debug_abbrev  0x0000000000001b49      0x15d /opt/mipsel-linux-uclibc/usr/bin/../lib/gcc/mipsel-linux-uclibc/4.3.3/libgcc.a(_le_df.o)
 .debug_abbrev  0x0000000000001ca6      0x149 /opt/mipsel-linux-uclibc/usr/bin/../lib/gcc/mipsel-linux-uclibc/4.3.3/libgcc.a(_si_to_df.o)
 .debug_abbrev  0x0000000000001def      0x182 /opt/mipsel-linux-uclibc/usr/bin/../lib/gcc/mipsel-linux-uclibc/4.3.3/libgcc.a(_df_to_si.o)
 .debug_abbrev  0x0000000000001f71      0x10c /opt/mipsel-linux-uclibc/usr/bin/../lib/gcc/mipsel-linux-uclibc/4.3.3/libgcc.a(_make_df.o)
 .debug_abbrev  0x000000000000207d      0x143 /opt/mipsel-linux-uclibc/usr/bin/../lib/gcc/mipsel-linux-uclibc/4.3.3/libgcc.a(_df_to_sf.o)
 .debug_abbrev  0x00000000000021c0       0xc3 /opt/mipsel-linux-uclibc/usr/bin/../lib/gcc/mipsel-linux-uclibc/4.3.3/libgcc.a(_thenan_df.o)
 .debug_abbrev  0x0000000000002283      0x158 /opt/mipsel-linux-uclibc/usr/bin/../lib/gcc/mipsel-linux-uclibc/4.3.3/libgcc.a(_usi_to_df.o)
 .debug_abbrev  0x00000000000023db       0xeb /opt/mipsel-linux-uclibc/usr/bin/../lib/gcc/mipsel-linux-uclibc/4.3.3/libgcc.a(_lshrdi3.o)
 .debug_abbrev  0x00000000000024c6       0xfa /opt/mipsel-linux-uclibc/usr/bin/../lib/gcc/mipsel-linux-uclibc/4.3.3/libgcc.a(_ashldi3.o)
 .debug_abbrev  0x00000000000025c0       0xd3 /opt/mipsel-linux-uclibc/usr/bin/../lib/gcc/mipsel-linux-uclibc/4.3.3/libgcc.a(_ucmpdi2.o)
 .debug_abbrev  0x0000000000002693       0xc7 /opt/mipsel-linux-uclibc/usr/bin/../lib/gcc/mipsel-linux-uclibc/4.3.3/libgcc.a(_clzsi2.o)
 .debug_abbrev  0x000000000000275a      0x1c3 /opt/mipsel-linux-uclibc/usr/bin/../lib/gcc/mipsel-linux-uclibc/4.3.3/libgcc.a(_pack_sf.o)
 .debug_abbrev  0x000000000000291d      0x166 /opt/mipsel-linux-uclibc/usr/bin/../lib/gcc/mipsel-linux-uclibc/4.3.3/libgcc.a(_unpack_sf.o)
 .debug_abbrev  0x0000000000002a83      0x14d /opt/mipsel-linux-uclibc/usr/bin/../lib/gcc/mipsel-linux-uclibc/4.3.3/libgcc.a(_fpcmp_parts_sf.o)
 .debug_abbrev  0x0000000000002bd0      0x10c /opt/mipsel-linux-uclibc/usr/bin/../lib/gcc/mipsel-linux-uclibc/4.3.3/libgcc.a(_make_sf.o)
 .debug_abbrev  0x0000000000002cdc      0x1c3 /opt/mipsel-linux-uclibc/usr/bin/../lib/gcc/mipsel-linux-uclibc/4.3.3/libgcc.a(_pack_df.o)
 .debug_abbrev  0x0000000000002e9f      0x157 /opt/mipsel-linux-uclibc/usr/bin/../lib/gcc/mipsel-linux-uclibc/4.3.3/libgcc.a(_unpack_df.o)
 .debug_abbrev  0x0000000000002ff6      0x14d /opt/mipsel-linux-uclibc/usr/bin/../lib/gcc/mipsel-linux-uclibc/4.3.3/libgcc.a(_fpcmp_parts_df.o)
 .debug_abbrev  0x0000000000003143       0x6a /opt/mipsel-linux-uclibc/usr/bin/../lib/gcc/mipsel-linux-uclibc/4.3.3/libgcc.a(_clz.o)
 .debug_abbrev  0x00000000000031ad      0x15d /opt/mipsel-linux-uclibc/usr/bin/../lib/gcc/mipsel-linux-uclibc/4.3.3/libgcc.a(_ne_df.o)

.debug_line     0x0000000000000000     0x2339
 *(.debug_line)
 .debug_line    0x0000000000000000       0xbc /opt/mipsel-linux-uclibc/usr/bin/../lib/gcc/mipsel-linux-uclibc/4.3.3/libgcc.a(_fixunssfsi.o)
 .debug_line    0x00000000000000bc       0xbf /opt/mipsel-linux-uclibc/usr/bin/../lib/gcc/mipsel-linux-uclibc/4.3.3/libgcc.a(_fixunsdfsi.o)
 .debug_line    0x000000000000017b      0x14c /opt/mipsel-linux-uclibc/usr/bin/../lib/gcc/mipsel-linux-uclibc/4.3.3/libgcc.a(_addsub_sf.o)
 .debug_line    0x00000000000002c7      0x140 /opt/mipsel-linux-uclibc/usr/bin/../lib/gcc/mipsel-linux-uclibc/4.3.3/libgcc.a(_mul_sf.o)
 .debug_line    0x0000000000000407      0x114 /opt/mipsel-linux-uclibc/usr/bin/../lib/gcc/mipsel-linux-uclibc/4.3.3/libgcc.a(_div_sf.o)
 .debug_line    0x000000000000051b       0xd2 /opt/mipsel-linux-uclibc/usr/bin/../lib/gcc/mipsel-linux-uclibc/4.3.3/libgcc.a(_ne_sf.o)
 .debug_line    0x00000000000005ed       0xd2 /opt/mipsel-linux-uclibc/usr/bin/../lib/gcc/mipsel-linux-uclibc/4.3.3/libgcc.a(_ge_sf.o)
 .debug_line    0x00000000000006bf       0xf1 /opt/mipsel-linux-uclibc/usr/bin/../lib/gcc/mipsel-linux-uclibc/4.3.3/libgcc.a(_si_to_sf.o)
 .debug_line    0x00000000000007b0       0xde /opt/mipsel-linux-uclibc/usr/bin/../lib/gcc/mipsel-linux-uclibc/4.3.3/libgcc.a(_sf_to_si.o)
 .debug_line    0x000000000000088e       0xce /opt/mipsel-linux-uclibc/usr/bin/../lib/gcc/mipsel-linux-uclibc/4.3.3/libgcc.a(_sf_to_df.o)
 .debug_line    0x000000000000095c       0xb4 /opt/mipsel-linux-uclibc/usr/bin/../lib/gcc/mipsel-linux-uclibc/4.3.3/libgcc.a(_thenan_sf.o)
 .debug_line    0x0000000000000a10       0xf5 /opt/mipsel-linux-uclibc/usr/bin/../lib/gcc/mipsel-linux-uclibc/4.3.3/libgcc.a(_usi_to_sf.o)
 .debug_line    0x0000000000000b05      0x163 /opt/mipsel-linux-uclibc/usr/bin/../lib/gcc/mipsel-linux-uclibc/4.3.3/libgcc.a(_addsub_df.o)
 .debug_line    0x0000000000000c68      0x15a /opt/mipsel-linux-uclibc/usr/bin/../lib/gcc/mipsel-linux-uclibc/4.3.3/libgcc.a(_mul_df.o)
 .debug_line    0x0000000000000dc2      0x12a /opt/mipsel-linux-uclibc/usr/bin/../lib/gcc/mipsel-linux-uclibc/4.3.3/libgcc.a(_div_df.o)
 .debug_line    0x0000000000000eec       0xd2 /opt/mipsel-linux-uclibc/usr/bin/../lib/gcc/mipsel-linux-uclibc/4.3.3/libgcc.a(_eq_df.o)
 .debug_line    0x0000000000000fbe       0xd2 /opt/mipsel-linux-uclibc/usr/bin/../lib/gcc/mipsel-linux-uclibc/4.3.3/libgcc.a(_gt_df.o)
 .debug_line    0x0000000000001090       0xd2 /opt/mipsel-linux-uclibc/usr/bin/../lib/gcc/mipsel-linux-uclibc/4.3.3/libgcc.a(_ge_df.o)
 .debug_line    0x0000000000001162       0xd2 /opt/mipsel-linux-uclibc/usr/bin/../lib/gcc/mipsel-linux-uclibc/4.3.3/libgcc.a(_lt_df.o)
 .debug_line    0x0000000000001234       0xd2 /opt/mipsel-linux-uclibc/usr/bin/../lib/gcc/mipsel-linux-uclibc/4.3.3/libgcc.a(_le_df.o)
 .debug_line    0x0000000000001306       0xf6 /opt/mipsel-linux-uclibc/usr/bin/../lib/gcc/mipsel-linux-uclibc/4.3.3/libgcc.a(_si_to_df.o)
 .debug_line    0x00000000000013fc       0xdf /opt/mipsel-linux-uclibc/usr/bin/../lib/gcc/mipsel-linux-uclibc/4.3.3/libgcc.a(_df_to_si.o)
 .debug_line    0x00000000000014db       0xcf /opt/mipsel-linux-uclibc/usr/bin/../lib/gcc/mipsel-linux-uclibc/4.3.3/libgcc.a(_make_df.o)
 .debug_line    0x00000000000015aa       0xd5 /opt/mipsel-linux-uclibc/usr/bin/../lib/gcc/mipsel-linux-uclibc/4.3.3/libgcc.a(_df_to_sf.o)
 .debug_line    0x000000000000167f       0xb4 /opt/mipsel-linux-uclibc/usr/bin/../lib/gcc/mipsel-linux-uclibc/4.3.3/libgcc.a(_thenan_df.o)
 .debug_line    0x0000000000001733      0x101 /opt/mipsel-linux-uclibc/usr/bin/../lib/gcc/mipsel-linux-uclibc/4.3.3/libgcc.a(_usi_to_df.o)
 .debug_line    0x0000000000001834       0xbc /opt/mipsel-linux-uclibc/usr/bin/../lib/gcc/mipsel-linux-uclibc/4.3.3/libgcc.a(_lshrdi3.o)
 .debug_line    0x00000000000018f0       0xbc /opt/mipsel-linux-uclibc/usr/bin/../lib/gcc/mipsel-linux-uclibc/4.3.3/libgcc.a(_ashldi3.o)
 .debug_line    0x00000000000019ac       0xb8 /opt/mipsel-linux-uclibc/usr/bin/../lib/gcc/mipsel-linux-uclibc/4.3.3/libgcc.a(_ucmpdi2.o)
 .debug_line    0x0000000000001a64       0xc5 /opt/mipsel-linux-uclibc/usr/bin/../lib/gcc/mipsel-linux-uclibc/4.3.3/libgcc.a(_clzsi2.o)
 .debug_line    0x0000000000001b29       0xf9 /opt/mipsel-linux-uclibc/usr/bin/../lib/gcc/mipsel-linux-uclibc/4.3.3/libgcc.a(_pack_sf.o)
 .debug_line    0x0000000000001c22       0xf4 /opt/mipsel-linux-uclibc/usr/bin/../lib/gcc/mipsel-linux-uclibc/4.3.3/libgcc.a(_unpack_sf.o)
 .debug_line    0x0000000000001d16       0xef /opt/mipsel-linux-uclibc/usr/bin/../lib/gcc/mipsel-linux-uclibc/4.3.3/libgcc.a(_fpcmp_parts_sf.o)
 .debug_line    0x0000000000001e05       0xce /opt/mipsel-linux-uclibc/usr/bin/../lib/gcc/mipsel-linux-uclibc/4.3.3/libgcc.a(_make_sf.o)
 .debug_line    0x0000000000001ed3      0x10c /opt/mipsel-linux-uclibc/usr/bin/../lib/gcc/mipsel-linux-uclibc/4.3.3/libgcc.a(_pack_df.o)
 .debug_line    0x0000000000001fdf       0xf4 /opt/mipsel-linux-uclibc/usr/bin/../lib/gcc/mipsel-linux-uclibc/4.3.3/libgcc.a(_unpack_df.o)
 .debug_line    0x00000000000020d3       0xf1 /opt/mipsel-linux-uclibc/usr/bin/../lib/gcc/mipsel-linux-uclibc/4.3.3/libgcc.a(_fpcmp_parts_df.o)
 .debug_line    0x00000000000021c4       0xa3 /opt/mipsel-linux-uclibc/usr/bin/../lib/gcc/mipsel-linux-uclibc/4.3.3/libgcc.a(_clz.o)
 .debug_line    0x0000000000002267       0xd2 /opt/mipsel-linux-uclibc/usr/bin/../lib/gcc/mipsel-linux-uclibc/4.3.3/libgcc.a(_ne_df.o)

.debug_frame    0x0000000000000000      0x638
 *(.debug_frame)
 .debug_frame   0x0000000000000000       0x2c /opt/mipsel-linux-uclibc/usr/bin/../lib/gcc/mipsel-linux-uclibc/4.3.3/libgcc.a(_fixunssfsi.o)
 .debug_frame   0x000000000000002c       0x2c /opt/mipsel-linux-uclibc/usr/bin/../lib/gcc/mipsel-linux-uclibc/4.3.3/libgcc.a(_fixunsdfsi.o)
 .debug_frame   0x0000000000000058       0x64 /opt/mipsel-linux-uclibc/usr/bin/../lib/gcc/mipsel-linux-uclibc/4.3.3/libgcc.a(_addsub_sf.o)
 .debug_frame   0x00000000000000bc       0x2c /opt/mipsel-linux-uclibc/usr/bin/../lib/gcc/mipsel-linux-uclibc/4.3.3/libgcc.a(_mul_sf.o)
 .debug_frame   0x00000000000000e8       0x2c /opt/mipsel-linux-uclibc/usr/bin/../lib/gcc/mipsel-linux-uclibc/4.3.3/libgcc.a(_div_sf.o)
 .debug_frame   0x0000000000000114       0x2c /opt/mipsel-linux-uclibc/usr/bin/../lib/gcc/mipsel-linux-uclibc/4.3.3/libgcc.a(_ne_sf.o)
 .debug_frame   0x0000000000000140       0x2c /opt/mipsel-linux-uclibc/usr/bin/../lib/gcc/mipsel-linux-uclibc/4.3.3/libgcc.a(_ge_sf.o)
 .debug_frame   0x000000000000016c       0x2c /opt/mipsel-linux-uclibc/usr/bin/../lib/gcc/mipsel-linux-uclibc/4.3.3/libgcc.a(_si_to_sf.o)
 .debug_frame   0x0000000000000198       0x28 /opt/mipsel-linux-uclibc/usr/bin/../lib/gcc/mipsel-linux-uclibc/4.3.3/libgcc.a(_sf_to_si.o)
 .debug_frame   0x00000000000001c0       0x28 /opt/mipsel-linux-uclibc/usr/bin/../lib/gcc/mipsel-linux-uclibc/4.3.3/libgcc.a(_sf_to_df.o)
 .debug_frame   0x00000000000001e8       0x2c /opt/mipsel-linux-uclibc/usr/bin/../lib/gcc/mipsel-linux-uclibc/4.3.3/libgcc.a(_usi_to_sf.o)
 .debug_frame   0x0000000000000214       0x70 /opt/mipsel-linux-uclibc/usr/bin/../lib/gcc/mipsel-linux-uclibc/4.3.3/libgcc.a(_addsub_df.o)
 .debug_frame   0x0000000000000284       0x2c /opt/mipsel-linux-uclibc/usr/bin/../lib/gcc/mipsel-linux-uclibc/4.3.3/libgcc.a(_mul_df.o)
 .debug_frame   0x00000000000002b0       0x2c /opt/mipsel-linux-uclibc/usr/bin/../lib/gcc/mipsel-linux-uclibc/4.3.3/libgcc.a(_div_df.o)
 .debug_frame   0x00000000000002dc       0x2c /opt/mipsel-linux-uclibc/usr/bin/../lib/gcc/mipsel-linux-uclibc/4.3.3/libgcc.a(_eq_df.o)
 .debug_frame   0x0000000000000308       0x2c /opt/mipsel-linux-uclibc/usr/bin/../lib/gcc/mipsel-linux-uclibc/4.3.3/libgcc.a(_gt_df.o)
 .debug_frame   0x0000000000000334       0x2c /opt/mipsel-linux-uclibc/usr/bin/../lib/gcc/mipsel-linux-uclibc/4.3.3/libgcc.a(_ge_df.o)
 .debug_frame   0x0000000000000360       0x2c /opt/mipsel-linux-uclibc/usr/bin/../lib/gcc/mipsel-linux-uclibc/4.3.3/libgcc.a(_lt_df.o)
 .debug_frame   0x000000000000038c       0x2c /opt/mipsel-linux-uclibc/usr/bin/../lib/gcc/mipsel-linux-uclibc/4.3.3/libgcc.a(_le_df.o)
 .debug_frame   0x00000000000003b8       0x30 /opt/mipsel-linux-uclibc/usr/bin/../lib/gcc/mipsel-linux-uclibc/4.3.3/libgcc.a(_si_to_df.o)
 .debug_frame   0x00000000000003e8       0x28 /opt/mipsel-linux-uclibc/usr/bin/../lib/gcc/mipsel-linux-uclibc/4.3.3/libgcc.a(_df_to_si.o)
 .debug_frame   0x0000000000000410       0x28 /opt/mipsel-linux-uclibc/usr/bin/../lib/gcc/mipsel-linux-uclibc/4.3.3/libgcc.a(_make_df.o)
 .debug_frame   0x0000000000000438       0x28 /opt/mipsel-linux-uclibc/usr/bin/../lib/gcc/mipsel-linux-uclibc/4.3.3/libgcc.a(_df_to_sf.o)
 .debug_frame   0x0000000000000460       0x30 /opt/mipsel-linux-uclibc/usr/bin/../lib/gcc/mipsel-linux-uclibc/4.3.3/libgcc.a(_usi_to_df.o)
 .debug_frame   0x0000000000000490       0x20 /opt/mipsel-linux-uclibc/usr/bin/../lib/gcc/mipsel-linux-uclibc/4.3.3/libgcc.a(_lshrdi3.o)
 .debug_frame   0x00000000000004b0       0x20 /opt/mipsel-linux-uclibc/usr/bin/../lib/gcc/mipsel-linux-uclibc/4.3.3/libgcc.a(_ashldi3.o)
 .debug_frame   0x00000000000004d0       0x20 /opt/mipsel-linux-uclibc/usr/bin/../lib/gcc/mipsel-linux-uclibc/4.3.3/libgcc.a(_ucmpdi2.o)
 .debug_frame   0x00000000000004f0       0x20 /opt/mipsel-linux-uclibc/usr/bin/../lib/gcc/mipsel-linux-uclibc/4.3.3/libgcc.a(_clzsi2.o)
 .debug_frame   0x0000000000000510       0x20 /opt/mipsel-linux-uclibc/usr/bin/../lib/gcc/mipsel-linux-uclibc/4.3.3/libgcc.a(_pack_sf.o)
 .debug_frame   0x0000000000000530       0x20 /opt/mipsel-linux-uclibc/usr/bin/../lib/gcc/mipsel-linux-uclibc/4.3.3/libgcc.a(_unpack_sf.o)
 .debug_frame   0x0000000000000550       0x20 /opt/mipsel-linux-uclibc/usr/bin/../lib/gcc/mipsel-linux-uclibc/4.3.3/libgcc.a(_fpcmp_parts_sf.o)
 .debug_frame   0x0000000000000570       0x28 /opt/mipsel-linux-uclibc/usr/bin/../lib/gcc/mipsel-linux-uclibc/4.3.3/libgcc.a(_make_sf.o)
 .debug_frame   0x0000000000000598       0x34 /opt/mipsel-linux-uclibc/usr/bin/../lib/gcc/mipsel-linux-uclibc/4.3.3/libgcc.a(_pack_df.o)
 .debug_frame   0x00000000000005cc       0x20 /opt/mipsel-linux-uclibc/usr/bin/../lib/gcc/mipsel-linux-uclibc/4.3.3/libgcc.a(_unpack_df.o)
 .debug_frame   0x00000000000005ec       0x20 /opt/mipsel-linux-uclibc/usr/bin/../lib/gcc/mipsel-linux-uclibc/4.3.3/libgcc.a(_fpcmp_parts_df.o)
 .debug_frame   0x000000000000060c       0x2c /opt/mipsel-linux-uclibc/usr/bin/../lib/gcc/mipsel-linux-uclibc/4.3.3/libgcc.a(_ne_df.o)

.debug_str      0x0000000000000000      0x568
 *(.debug_str)
 .debug_str     0x0000000000000000      0x18d /opt/mipsel-linux-uclibc/usr/bin/../lib/gcc/mipsel-linux-uclibc/4.3.3/libgcc.a(_fixunssfsi.o)
                                        0x1d3 (size before relaxing)
 .debug_str     0x000000000000018d       0x14 /opt/mipsel-linux-uclibc/usr/bin/../lib/gcc/mipsel-linux-uclibc/4.3.3/libgcc.a(_fixunsdfsi.o)
                                        0x1d3 (size before relaxing)
 .debug_str     0x00000000000001a1      0x14e /opt/mipsel-linux-uclibc/usr/bin/../lib/gcc/mipsel-linux-uclibc/4.3.3/libgcc.a(_addsub_sf.o)
                                        0x275 (size before relaxing)
 .debug_str     0x00000000000002ef       0x2a /opt/mipsel-linux-uclibc/usr/bin/../lib/gcc/mipsel-linux-uclibc/4.3.3/libgcc.a(_mul_sf.o)
                                        0x22c (size before relaxing)
 .debug_str     0x0000000000000319       0x35 /opt/mipsel-linux-uclibc/usr/bin/../lib/gcc/mipsel-linux-uclibc/4.3.3/libgcc.a(_div_sf.o)
                                        0x237 (size before relaxing)
 .debug_str     0x000000000000034e       0x10 /opt/mipsel-linux-uclibc/usr/bin/../lib/gcc/mipsel-linux-uclibc/4.3.3/libgcc.a(_ne_sf.o)
                                        0x205 (size before relaxing)
 .debug_str     0x000000000000035e        0x8 /opt/mipsel-linux-uclibc/usr/bin/../lib/gcc/mipsel-linux-uclibc/4.3.3/libgcc.a(_ge_sf.o)
                                        0x205 (size before relaxing)
 .debug_str     0x0000000000000366       0x1e /opt/mipsel-linux-uclibc/usr/bin/../lib/gcc/mipsel-linux-uclibc/4.3.3/libgcc.a(_si_to_sf.o)
                                        0x1ea (size before relaxing)
 .debug_str     0x0000000000000384        0xa /opt/mipsel-linux-uclibc/usr/bin/../lib/gcc/mipsel-linux-uclibc/4.3.3/libgcc.a(_sf_to_si.o)
                                        0x20d (size before relaxing)
 .debug_str     0x000000000000038e        0xe /opt/mipsel-linux-uclibc/usr/bin/../lib/gcc/mipsel-linux-uclibc/4.3.3/libgcc.a(_sf_to_df.o)
                                        0x1fe (size before relaxing)
 .debug_str     0x0000000000000000      0x1af /opt/mipsel-linux-uclibc/usr/bin/../lib/gcc/mipsel-linux-uclibc/4.3.3/libgcc.a(_thenan_sf.o)
 .debug_str     0x000000000000039c       0x14 /opt/mipsel-linux-uclibc/usr/bin/../lib/gcc/mipsel-linux-uclibc/4.3.3/libgcc.a(_usi_to_sf.o)
                                        0x1e6 (size before relaxing)
 .debug_str     0x00000000000003b0       0x39 /opt/mipsel-linux-uclibc/usr/bin/../lib/gcc/mipsel-linux-uclibc/4.3.3/libgcc.a(_addsub_df.o)
                                        0x27b (size before relaxing)
 .debug_str     0x00000000000003e9       0x33 /opt/mipsel-linux-uclibc/usr/bin/../lib/gcc/mipsel-linux-uclibc/4.3.3/libgcc.a(_mul_df.o)
                                        0x24d (size before relaxing)
 .debug_str     0x000000000000041c        0x9 /opt/mipsel-linux-uclibc/usr/bin/../lib/gcc/mipsel-linux-uclibc/4.3.3/libgcc.a(_div_df.o)
                                        0x23d (size before relaxing)
 .debug_str     0x0000000000000425        0x8 /opt/mipsel-linux-uclibc/usr/bin/../lib/gcc/mipsel-linux-uclibc/4.3.3/libgcc.a(_eq_df.o)
                                        0x20b (size before relaxing)
 .debug_str     0x000000000000042d        0x8 /opt/mipsel-linux-uclibc/usr/bin/../lib/gcc/mipsel-linux-uclibc/4.3.3/libgcc.a(_gt_df.o)
                                        0x20b (size before relaxing)
 .debug_str     0x0000000000000435        0x8 /opt/mipsel-linux-uclibc/usr/bin/../lib/gcc/mipsel-linux-uclibc/4.3.3/libgcc.a(_ge_df.o)
                                        0x20b (size before relaxing)
 .debug_str     0x000000000000043d        0x8 /opt/mipsel-linux-uclibc/usr/bin/../lib/gcc/mipsel-linux-uclibc/4.3.3/libgcc.a(_lt_df.o)
                                        0x20b (size before relaxing)
 .debug_str     0x0000000000000445        0x8 /opt/mipsel-linux-uclibc/usr/bin/../lib/gcc/mipsel-linux-uclibc/4.3.3/libgcc.a(_le_df.o)
                                        0x20b (size before relaxing)
 .debug_str     0x000000000000044d        0xc /opt/mipsel-linux-uclibc/usr/bin/../lib/gcc/mipsel-linux-uclibc/4.3.3/libgcc.a(_si_to_df.o)
                                        0x1ea (size before relaxing)
 .debug_str     0x0000000000000459        0xa /opt/mipsel-linux-uclibc/usr/bin/../lib/gcc/mipsel-linux-uclibc/4.3.3/libgcc.a(_df_to_si.o)
                                        0x213 (size before relaxing)
 .debug_str     0x0000000000000463        0xa /opt/mipsel-linux-uclibc/usr/bin/../lib/gcc/mipsel-linux-uclibc/4.3.3/libgcc.a(_make_df.o)
                                        0x1c5 (size before relaxing)
 .debug_str     0x000000000000046d       0x14 /opt/mipsel-linux-uclibc/usr/bin/../lib/gcc/mipsel-linux-uclibc/4.3.3/libgcc.a(_df_to_sf.o)
                                        0x20a (size before relaxing)
 .debug_str     0x0000000000000000      0x1af /opt/mipsel-linux-uclibc/usr/bin/../lib/gcc/mipsel-linux-uclibc/4.3.3/libgcc.a(_thenan_df.o)
 .debug_str     0x0000000000000481        0xe /opt/mipsel-linux-uclibc/usr/bin/../lib/gcc/mipsel-linux-uclibc/4.3.3/libgcc.a(_usi_to_df.o)
                                        0x1e6 (size before relaxing)
 .debug_str     0x000000000000048f       0x34 /opt/mipsel-linux-uclibc/usr/bin/../lib/gcc/mipsel-linux-uclibc/4.3.3/libgcc.a(_lshrdi3.o)
                                        0x206 (size before relaxing)
 .debug_str     0x00000000000004c3        0xa /opt/mipsel-linux-uclibc/usr/bin/../lib/gcc/mipsel-linux-uclibc/4.3.3/libgcc.a(_ashldi3.o)
                                        0x206 (size before relaxing)
 .debug_str     0x00000000000004cd       0x1a /opt/mipsel-linux-uclibc/usr/bin/../lib/gcc/mipsel-linux-uclibc/4.3.3/libgcc.a(_ucmpdi2.o)
                                        0x1f5 (size before relaxing)
 .debug_str     0x00000000000004e7       0x20 /opt/mipsel-linux-uclibc/usr/bin/../lib/gcc/mipsel-linux-uclibc/4.3.3/libgcc.a(_clzsi2.o)
                                        0x1e6 (size before relaxing)
 .debug_str     0x0000000000000507       0x10 /opt/mipsel-linux-uclibc/usr/bin/../lib/gcc/mipsel-linux-uclibc/4.3.3/libgcc.a(_pack_sf.o)
                                        0x20c (size before relaxing)
 .debug_str     0x0000000000000517        0xb /opt/mipsel-linux-uclibc/usr/bin/../lib/gcc/mipsel-linux-uclibc/4.3.3/libgcc.a(_unpack_sf.o)
                                        0x1ee (size before relaxing)
 .debug_str     0x0000000000000522       0x10 /opt/mipsel-linux-uclibc/usr/bin/../lib/gcc/mipsel-linux-uclibc/4.3.3/libgcc.a(_fpcmp_parts_sf.o)
                                        0x1d2 (size before relaxing)
 .debug_str     0x0000000000000532        0xa /opt/mipsel-linux-uclibc/usr/bin/../lib/gcc/mipsel-linux-uclibc/4.3.3/libgcc.a(_make_sf.o)
                                        0x1c5 (size before relaxing)
 .debug_str     0x000000000000053c        0x9 /opt/mipsel-linux-uclibc/usr/bin/../lib/gcc/mipsel-linux-uclibc/4.3.3/libgcc.a(_pack_df.o)
                                        0x212 (size before relaxing)
 .debug_str     0x0000000000000545        0xb /opt/mipsel-linux-uclibc/usr/bin/../lib/gcc/mipsel-linux-uclibc/4.3.3/libgcc.a(_unpack_df.o)
                                        0x1f4 (size before relaxing)
 .debug_str     0x0000000000000550       0x10 /opt/mipsel-linux-uclibc/usr/bin/../lib/gcc/mipsel-linux-uclibc/4.3.3/libgcc.a(_fpcmp_parts_df.o)
                                        0x1d2 (size before relaxing)
 .debug_str     0x0000000000000000      0x1c9 /opt/mipsel-linux-uclibc/usr/bin/../lib/gcc/mipsel-linux-uclibc/4.3.3/libgcc.a(_clz.o)
 .debug_str     0x0000000000000560        0x8 /opt/mipsel-linux-uclibc/usr/bin/../lib/gcc/mipsel-linux-uclibc/4.3.3/libgcc.a(_ne_df.o)
                                        0x20b (size before relaxing)

.debug_loc      0x0000000000000000     0x1759
 *(.debug_loc)
 .debug_loc     0x0000000000000000       0x3d /opt/mipsel-linux-uclibc/usr/bin/../lib/gcc/mipsel-linux-uclibc/4.3.3/libgcc.a(_fixunssfsi.o)
 .debug_loc     0x000000000000003d       0x57 /opt/mipsel-linux-uclibc/usr/bin/../lib/gcc/mipsel-linux-uclibc/4.3.3/libgcc.a(_fixunsdfsi.o)
 .debug_loc     0x0000000000000094      0x253 /opt/mipsel-linux-uclibc/usr/bin/../lib/gcc/mipsel-linux-uclibc/4.3.3/libgcc.a(_addsub_sf.o)
 .debug_loc     0x00000000000002e7      0x120 /opt/mipsel-linux-uclibc/usr/bin/../lib/gcc/mipsel-linux-uclibc/4.3.3/libgcc.a(_mul_sf.o)
 .debug_loc     0x0000000000000407       0xdc /opt/mipsel-linux-uclibc/usr/bin/../lib/gcc/mipsel-linux-uclibc/4.3.3/libgcc.a(_div_sf.o)
 .debug_loc     0x00000000000004e3       0x46 /opt/mipsel-linux-uclibc/usr/bin/../lib/gcc/mipsel-linux-uclibc/4.3.3/libgcc.a(_ne_sf.o)
 .debug_loc     0x0000000000000529       0x46 /opt/mipsel-linux-uclibc/usr/bin/../lib/gcc/mipsel-linux-uclibc/4.3.3/libgcc.a(_ge_sf.o)
 .debug_loc     0x000000000000056f       0x79 /opt/mipsel-linux-uclibc/usr/bin/../lib/gcc/mipsel-linux-uclibc/4.3.3/libgcc.a(_si_to_sf.o)
 .debug_loc     0x00000000000005e8       0x5b /opt/mipsel-linux-uclibc/usr/bin/../lib/gcc/mipsel-linux-uclibc/4.3.3/libgcc.a(_sf_to_si.o)
 .debug_loc     0x0000000000000643       0x33 /opt/mipsel-linux-uclibc/usr/bin/../lib/gcc/mipsel-linux-uclibc/4.3.3/libgcc.a(_sf_to_df.o)
 .debug_loc     0x0000000000000676       0x50 /opt/mipsel-linux-uclibc/usr/bin/../lib/gcc/mipsel-linux-uclibc/4.3.3/libgcc.a(_usi_to_sf.o)
 .debug_loc     0x00000000000006c6      0x2e8 /opt/mipsel-linux-uclibc/usr/bin/../lib/gcc/mipsel-linux-uclibc/4.3.3/libgcc.a(_addsub_df.o)
 .debug_loc     0x00000000000009ae      0x1d7 /opt/mipsel-linux-uclibc/usr/bin/../lib/gcc/mipsel-linux-uclibc/4.3.3/libgcc.a(_mul_df.o)
 .debug_loc     0x0000000000000b85      0x1b4 /opt/mipsel-linux-uclibc/usr/bin/../lib/gcc/mipsel-linux-uclibc/4.3.3/libgcc.a(_div_df.o)
 .debug_loc     0x0000000000000d39       0x50 /opt/mipsel-linux-uclibc/usr/bin/../lib/gcc/mipsel-linux-uclibc/4.3.3/libgcc.a(_eq_df.o)
 .debug_loc     0x0000000000000d89       0x50 /opt/mipsel-linux-uclibc/usr/bin/../lib/gcc/mipsel-linux-uclibc/4.3.3/libgcc.a(_gt_df.o)
 .debug_loc     0x0000000000000dd9       0x50 /opt/mipsel-linux-uclibc/usr/bin/../lib/gcc/mipsel-linux-uclibc/4.3.3/libgcc.a(_ge_df.o)
 .debug_loc     0x0000000000000e29       0x50 /opt/mipsel-linux-uclibc/usr/bin/../lib/gcc/mipsel-linux-uclibc/4.3.3/libgcc.a(_lt_df.o)
 .debug_loc     0x0000000000000e79       0x50 /opt/mipsel-linux-uclibc/usr/bin/../lib/gcc/mipsel-linux-uclibc/4.3.3/libgcc.a(_le_df.o)
 .debug_loc     0x0000000000000ec9       0x9b /opt/mipsel-linux-uclibc/usr/bin/../lib/gcc/mipsel-linux-uclibc/4.3.3/libgcc.a(_si_to_df.o)
 .debug_loc     0x0000000000000f64       0x61 /opt/mipsel-linux-uclibc/usr/bin/../lib/gcc/mipsel-linux-uclibc/4.3.3/libgcc.a(_df_to_si.o)
 .debug_loc     0x0000000000000fc5       0x7d /opt/mipsel-linux-uclibc/usr/bin/../lib/gcc/mipsel-linux-uclibc/4.3.3/libgcc.a(_make_df.o)
 .debug_loc     0x0000000000001042       0x56 /opt/mipsel-linux-uclibc/usr/bin/../lib/gcc/mipsel-linux-uclibc/4.3.3/libgcc.a(_df_to_sf.o)
 .debug_loc     0x0000000000001098       0x5c /opt/mipsel-linux-uclibc/usr/bin/../lib/gcc/mipsel-linux-uclibc/4.3.3/libgcc.a(_usi_to_df.o)
 .debug_loc     0x00000000000010f4       0x5e /opt/mipsel-linux-uclibc/usr/bin/../lib/gcc/mipsel-linux-uclibc/4.3.3/libgcc.a(_lshrdi3.o)
 .debug_loc     0x0000000000001152       0x86 /opt/mipsel-linux-uclibc/usr/bin/../lib/gcc/mipsel-linux-uclibc/4.3.3/libgcc.a(_ashldi3.o)
 .debug_loc     0x00000000000011d8       0x50 /opt/mipsel-linux-uclibc/usr/bin/../lib/gcc/mipsel-linux-uclibc/4.3.3/libgcc.a(_ucmpdi2.o)
 .debug_loc     0x0000000000001228       0x1e /opt/mipsel-linux-uclibc/usr/bin/../lib/gcc/mipsel-linux-uclibc/4.3.3/libgcc.a(_clzsi2.o)
 .debug_loc     0x0000000000001246       0x8e /opt/mipsel-linux-uclibc/usr/bin/../lib/gcc/mipsel-linux-uclibc/4.3.3/libgcc.a(_pack_sf.o)
 .debug_loc     0x00000000000012d4       0x4f /opt/mipsel-linux-uclibc/usr/bin/../lib/gcc/mipsel-linux-uclibc/4.3.3/libgcc.a(_unpack_sf.o)
 .debug_loc     0x0000000000001323       0x29 /opt/mipsel-linux-uclibc/usr/bin/../lib/gcc/mipsel-linux-uclibc/4.3.3/libgcc.a(_fpcmp_parts_sf.o)
 .debug_loc     0x000000000000134c       0x6b /opt/mipsel-linux-uclibc/usr/bin/../lib/gcc/mipsel-linux-uclibc/4.3.3/libgcc.a(_make_sf.o)
 .debug_loc     0x00000000000013b7      0x232 /opt/mipsel-linux-uclibc/usr/bin/../lib/gcc/mipsel-linux-uclibc/4.3.3/libgcc.a(_pack_df.o)
 .debug_loc     0x00000000000015e9       0xf7 /opt/mipsel-linux-uclibc/usr/bin/../lib/gcc/mipsel-linux-uclibc/4.3.3/libgcc.a(_unpack_df.o)
 .debug_loc     0x00000000000016e0       0x29 /opt/mipsel-linux-uclibc/usr/bin/../lib/gcc/mipsel-linux-uclibc/4.3.3/libgcc.a(_fpcmp_parts_df.o)
 .debug_loc     0x0000000000001709       0x50 /opt/mipsel-linux-uclibc/usr/bin/../lib/gcc/mipsel-linux-uclibc/4.3.3/libgcc.a(_ne_df.o)

.debug_macinfo
 *(.debug_macinfo)

.debug_weaknames
 *(.debug_weaknames)

.debug_funcnames
 *(.debug_funcnames)

.debug_typenames
 *(.debug_typenames)

.debug_varnames
 *(.debug_varnames)

.debug_pubtypes
 *(.debug_pubtypes)

.debug_ranges   0x0000000000000000      0x1b0
 *(.debug_ranges)
 .debug_ranges  0x0000000000000000       0x68 /opt/mipsel-linux-uclibc/usr/bin/../lib/gcc/mipsel-linux-uclibc/4.3.3/libgcc.a(_mul_sf.o)
 .debug_ranges  0x0000000000000068       0x30 /opt/mipsel-linux-uclibc/usr/bin/../lib/gcc/mipsel-linux-uclibc/4.3.3/libgcc.a(_div_sf.o)
 .debug_ranges  0x0000000000000098       0x20 /opt/mipsel-linux-uclibc/usr/bin/../lib/gcc/mipsel-linux-uclibc/4.3.3/libgcc.a(_si_to_sf.o)
 .debug_ranges  0x00000000000000b8       0x20 /opt/mipsel-linux-uclibc/usr/bin/../lib/gcc/mipsel-linux-uclibc/4.3.3/libgcc.a(_usi_to_sf.o)
 .debug_ranges  0x00000000000000d8       0x68 /opt/mipsel-linux-uclibc/usr/bin/../lib/gcc/mipsel-linux-uclibc/4.3.3/libgcc.a(_mul_df.o)
 .debug_ranges  0x0000000000000140       0x30 /opt/mipsel-linux-uclibc/usr/bin/../lib/gcc/mipsel-linux-uclibc/4.3.3/libgcc.a(_div_df.o)
 .debug_ranges  0x0000000000000170       0x20 /opt/mipsel-linux-uclibc/usr/bin/../lib/gcc/mipsel-linux-uclibc/4.3.3/libgcc.a(_si_to_df.o)
 .debug_ranges  0x0000000000000190       0x20 /opt/mipsel-linux-uclibc/usr/bin/../lib/gcc/mipsel-linux-uclibc/4.3.3/libgcc.a(_usi_to_df.o)

.gnu.attributes
                0x0000000000000000       0x10
 *(.gnu.attributes)
 .gnu.attributes
                0x0000000000000000       0x10 /opt/mipsel-linux-uclibc/usr/bin/../lib/gcc/mipsel-linux-uclibc/4.3.3/crtbeginT.o
 .gnu.attributes
                0x0000000000000010       0x10 platform/gp2x/main.o
 .gnu.attributes
                0x0000000000000020       0x10 platform/gp2x/menu.o
 .gnu.attributes
                0x0000000000000030       0x10 platform/gp2x/emu.o
 .gnu.attributes
                0x0000000000000040       0x10 platform/gp2x/usbjoy.o
 .gnu.attributes
                0x0000000000000050       0x10 blit.o
 .gnu.attributes
                0x0000000000000060       0x10 gp2x.o
 .gnu.attributes
                0x0000000000000070       0x10 log_io.o
 .gnu.attributes
                0x0000000000000080       0x10 platform/common/emu.o
 .gnu.attributes
                0x0000000000000090       0x10 platform/common/menu.o
 .gnu.attributes
                0x00000000000000a0       0x10 platform/common/fonts.o
 .gnu.attributes
                0x00000000000000b0       0x10 platform/common/readpng.o
 .gnu.attributes
                0x00000000000000c0       0x10 platform/common/mp3_helix.o
 .gnu.attributes
                0x00000000000000d0       0x10 Pico/Area.o
 .gnu.attributes
                0x00000000000000e0       0x10 Pico/Cart.o
 .gnu.attributes
                0x00000000000000f0       0x10 Pico/Memory.o
 .gnu.attributes
                0x0000000000000100       0x10 Pico/Misc.o
 .gnu.attributes
                0x0000000000000110       0x10 Pico/Pico.o
 .gnu.attributes
                0x0000000000000120       0x10 Pico/Sek.o
 .gnu.attributes
                0x0000000000000130       0x10 Pico/VideoPort.o
 .gnu.attributes
                0x0000000000000140       0x10 Pico/Draw2.o
 .gnu.attributes
                0x0000000000000150       0x10 Pico/Draw.o
 .gnu.attributes
                0x0000000000000160       0x10 Pico/Patch.o
 .gnu.attributes
                0x0000000000000170       0x10 Pico/cd/Pico.o
 .gnu.attributes
                0x0000000000000180       0x10 Pico/cd/Memory.o
 .gnu.attributes
                0x0000000000000190       0x10 Pico/cd/Sek.o
 .gnu.attributes
                0x00000000000001a0       0x10 Pico/cd/LC89510.o
 .gnu.attributes
                0x00000000000001b0       0x10 Pico/cd/cd_sys.o
 .gnu.attributes
                0x00000000000001c0       0x10 Pico/cd/cd_file.o
 .gnu.attributes
                0x00000000000001d0       0x10 Pico/cd/gfx_cd.o
 .gnu.attributes
                0x00000000000001e0       0x10 Pico/cd/Area.o
 .gnu.attributes
                0x00000000000001f0       0x10 Pico/cd/Misc.o
 .gnu.attributes
                0x0000000000000200       0x10 Pico/cd/pcm.o
 .gnu.attributes
                0x0000000000000210       0x10 Pico/cd/buffering.o
 .gnu.attributes
                0x0000000000000220       0x10 Pico/sound/sound.o
 .gnu.attributes
                0x0000000000000230       0x10 Pico/sound/sn76496.o
 .gnu.attributes
                0x0000000000000240       0x10 Pico/sound/ym2612.o
 .gnu.attributes
                0x0000000000000250       0x10 Pico/sound/mix.o
 .gnu.attributes
                0x0000000000000260       0x10 zlib/gzio.o
 .gnu.attributes
                0x0000000000000270       0x10 zlib/inffast.o
 .gnu.attributes
                0x0000000000000280       0x10 zlib/inflate.o
 .gnu.attributes
                0x0000000000000290       0x10 zlib/inftrees.o
 .gnu.attributes
                0x00000000000002a0       0x10 zlib/trees.o
 .gnu.attributes
                0x00000000000002b0       0x10 zlib/deflate.o
 .gnu.attributes
                0x00000000000002c0       0x10 zlib/crc32.o
 .gnu.attributes
                0x00000000000002d0       0x10 zlib/adler32.o
 .gnu.attributes
                0x00000000000002e0       0x10 zlib/zutil.o
 .gnu.attributes
                0x00000000000002f0       0x10 zlib/compress.o
 .gnu.attributes
                0x0000000000000300       0x10 zlib/uncompr.o
 .gnu.attributes
                0x0000000000000310       0x10 unzip/unzip.o
 .gnu.attributes
                0x0000000000000320       0x10 unzip/unzip_stream.o
 .gnu.attributes
                0x0000000000000330       0x10 cpu/musashi/m68kops.o
 .gnu.attributes
                0x0000000000000340       0x10 cpu/musashi/m68kcpu.o
 .gnu.attributes
                0x0000000000000350       0x10 cpu/fame/famec.o
 .gnu.attributes
                0x0000000000000360       0x10 cpu/cz80/cz80.o
 .gnu.attributes
                0x0000000000000370       0x10 Pico/Debug.o
 .gnu.attributes
                0x0000000000000380       0x10 cpu/musashi/m68kdasm.o
 .gnu.attributes
                0x0000000000000390       0x10 /opt/mipsel-linux-uclibc/usr/lib/libm.a(s_floor.os)
 .gnu.attributes
                0x00000000000003a0       0x10 /opt/mipsel-linux-uclibc/usr/lib/libm.a(s_sin.os)
 .gnu.attributes
                0x00000000000003b0       0x10 /opt/mipsel-linux-uclibc/usr/lib/libm.a(w_log.os)
 .gnu.attributes
                0x00000000000003c0       0x10 /opt/mipsel-linux-uclibc/usr/lib/libm.a(w_pow.os)
 .gnu.attributes
                0x00000000000003d0       0x10 /opt/mipsel-linux-uclibc/usr/lib/libm.a(e_log.os)
 .gnu.attributes
                0x00000000000003e0       0x10 /opt/mipsel-linux-uclibc/usr/lib/libm.a(e_pow.os)
 .gnu.attributes
                0x00000000000003f0       0x10 /opt/mipsel-linux-uclibc/usr/lib/libm.a(e_rem_pio2.os)
 .gnu.attributes
                0x0000000000000400       0x10 /opt/mipsel-linux-uclibc/usr/lib/libm.a(e_sqrt.os)
 .gnu.attributes
                0x0000000000000410       0x10 /opt/mipsel-linux-uclibc/usr/lib/libm.a(k_cos.os)
 .gnu.attributes
                0x0000000000000420       0x10 /opt/mipsel-linux-uclibc/usr/lib/libm.a(k_rem_pio2.os)
 .gnu.attributes
                0x0000000000000430       0x10 /opt/mipsel-linux-uclibc/usr/lib/libm.a(k_sin.os)
 .gnu.attributes
                0x0000000000000440       0x10 /opt/mipsel-linux-uclibc/usr/lib/libm.a(s_fabs.os)
 .gnu.attributes
                0x0000000000000450       0x10 /opt/mipsel-linux-uclibc/usr/lib/libm.a(s_scalbn.os)
 .gnu.attributes
                0x0000000000000460       0x10 /opt/mipsel-linux-uclibc/usr/lib/libm.a(s_copysign.os)
 .gnu.attributes
                0x0000000000000470       0x10 /opt/mipsel-linux-uclibc/usr/lib/libpng.a(libpng12_la-png.o)
 .gnu.attributes
                0x0000000000000480       0x10 /opt/mipsel-linux-uclibc/usr/lib/libpng.a(libpng12_la-pngget.o)
 .gnu.attributes
                0x0000000000000490       0x10 /opt/mipsel-linux-uclibc/usr/lib/libpng.a(libpng12_la-pngread.o)
 .gnu.attributes
                0x00000000000004a0       0x10 /opt/mipsel-linux-uclibc/usr/lib/libpng.a(libpng12_la-pngrio.o)
 .gnu.attributes
                0x00000000000004b0       0x10 /opt/mipsel-linux-uclibc/usr/lib/libpng.a(libpng12_la-pngrtran.o)
 .gnu.attributes
                0x00000000000004c0       0x10 /opt/mipsel-linux-uclibc/usr/lib/libpng.a(libpng12_la-pngmem.o)
 .gnu.attributes
                0x00000000000004d0       0x10 /opt/mipsel-linux-uclibc/usr/lib/libpng.a(libpng12_la-pngerror.o)
 .gnu.attributes
                0x00000000000004e0       0x10 /opt/mipsel-linux-uclibc/usr/lib/libpng.a(libpng12_la-pngrutil.o)
 .gnu.attributes
                0x00000000000004f0       0x10 /opt/mipsel-linux-uclibc/usr/lib/libpng.a(libpng12_la-pngtrans.o)
 .gnu.attributes
                0x0000000000000500       0x10 /opt/mipsel-linux-uclibc/usr/lib/libpng.a(libpng12_la-pngset.o)
 .gnu.attributes
                0x0000000000000510       0x10 /opt/mipsel-linux-uclibc/usr/bin/../lib/gcc/mipsel-linux-uclibc/4.3.3/libgcc.a(_fixunssfsi.o)
 .gnu.attributes
                0x0000000000000520       0x10 /opt/mipsel-linux-uclibc/usr/bin/../lib/gcc/mipsel-linux-uclibc/4.3.3/libgcc.a(_fixunsdfsi.o)
 .gnu.attributes
                0x0000000000000530       0x10 /opt/mipsel-linux-uclibc/usr/bin/../lib/gcc/mipsel-linux-uclibc/4.3.3/libgcc.a(_addsub_sf.o)
 .gnu.attributes
                0x0000000000000540       0x10 /opt/mipsel-linux-uclibc/usr/bin/../lib/gcc/mipsel-linux-uclibc/4.3.3/libgcc.a(_mul_sf.o)
 .gnu.attributes
                0x0000000000000550       0x10 /opt/mipsel-linux-uclibc/usr/bin/../lib/gcc/mipsel-linux-uclibc/4.3.3/libgcc.a(_div_sf.o)
 .gnu.attributes
                0x0000000000000560       0x10 /opt/mipsel-linux-uclibc/usr/bin/../lib/gcc/mipsel-linux-uclibc/4.3.3/libgcc.a(_ne_sf.o)
 .gnu.attributes
                0x0000000000000570       0x10 /opt/mipsel-linux-uclibc/usr/bin/../lib/gcc/mipsel-linux-uclibc/4.3.3/libgcc.a(_ge_sf.o)
 .gnu.attributes
                0x0000000000000580       0x10 /opt/mipsel-linux-uclibc/usr/bin/../lib/gcc/mipsel-linux-uclibc/4.3.3/libgcc.a(_si_to_sf.o)
 .gnu.attributes
                0x0000000000000590       0x10 /opt/mipsel-linux-uclibc/usr/bin/../lib/gcc/mipsel-linux-uclibc/4.3.3/libgcc.a(_sf_to_si.o)
 .gnu.attributes
                0x00000000000005a0       0x10 /opt/mipsel-linux-uclibc/usr/bin/../lib/gcc/mipsel-linux-uclibc/4.3.3/libgcc.a(_sf_to_df.o)
 .gnu.attributes
                0x00000000000005b0       0x10 /opt/mipsel-linux-uclibc/usr/bin/../lib/gcc/mipsel-linux-uclibc/4.3.3/libgcc.a(_thenan_sf.o)
 .gnu.attributes
                0x00000000000005c0       0x10 /opt/mipsel-linux-uclibc/usr/bin/../lib/gcc/mipsel-linux-uclibc/4.3.3/libgcc.a(_usi_to_sf.o)
 .gnu.attributes
                0x00000000000005d0       0x10 /opt/mipsel-linux-uclibc/usr/bin/../lib/gcc/mipsel-linux-uclibc/4.3.3/libgcc.a(_addsub_df.o)
 .gnu.attributes
                0x00000000000005e0       0x10 /opt/mipsel-linux-uclibc/usr/bin/../lib/gcc/mipsel-linux-uclibc/4.3.3/libgcc.a(_mul_df.o)
 .gnu.attributes
                0x00000000000005f0       0x10 /opt/mipsel-linux-uclibc/usr/bin/../lib/gcc/mipsel-linux-uclibc/4.3.3/libgcc.a(_div_df.o)
 .gnu.attributes
                0x0000000000000600       0x10 /opt/mipsel-linux-uclibc/usr/bin/../lib/gcc/mipsel-linux-uclibc/4.3.3/libgcc.a(_eq_df.o)
 .gnu.attributes
                0x0000000000000610       0x10 /opt/mipsel-linux-uclibc/usr/bin/../lib/gcc/mipsel-linux-uclibc/4.3.3/libgcc.a(_gt_df.o)
 .gnu.attributes
                0x0000000000000620       0x10 /opt/mipsel-linux-uclibc/usr/bin/../lib/gcc/mipsel-linux-uclibc/4.3.3/libgcc.a(_ge_df.o)
 .gnu.attributes
                0x0000000000000630       0x10 /opt/mipsel-linux-uclibc/usr/bin/../lib/gcc/mipsel-linux-uclibc/4.3.3/libgcc.a(_lt_df.o)
 .gnu.attributes
                0x0000000000000640       0x10 /opt/mipsel-linux-uclibc/usr/bin/../lib/gcc/mipsel-linux-uclibc/4.3.3/libgcc.a(_le_df.o)
 .gnu.attributes
                0x0000000000000650       0x10 /opt/mipsel-linux-uclibc/usr/bin/../lib/gcc/mipsel-linux-uclibc/4.3.3/libgcc.a(_si_to_df.o)
 .gnu.attributes
                0x0000000000000660       0x10 /opt/mipsel-linux-uclibc/usr/bin/../lib/gcc/mipsel-linux-uclibc/4.3.3/libgcc.a(_df_to_si.o)
 .gnu.attributes
                0x0000000000000670       0x10 /opt/mipsel-linux-uclibc/usr/bin/../lib/gcc/mipsel-linux-uclibc/4.3.3/libgcc.a(_make_df.o)
 .gnu.attributes
                0x0000000000000680       0x10 /opt/mipsel-linux-uclibc/usr/bin/../lib/gcc/mipsel-linux-uclibc/4.3.3/libgcc.a(_df_to_sf.o)
 .gnu.attributes
                0x0000000000000690       0x10 /opt/mipsel-linux-uclibc/usr/bin/../lib/gcc/mipsel-linux-uclibc/4.3.3/libgcc.a(_thenan_df.o)
 .gnu.attributes
                0x00000000000006a0       0x10 /opt/mipsel-linux-uclibc/usr/bin/../lib/gcc/mipsel-linux-uclibc/4.3.3/libgcc.a(_usi_to_df.o)
 .gnu.attributes
                0x00000000000006b0       0x10 /opt/mipsel-linux-uclibc/usr/bin/../lib/gcc/mipsel-linux-uclibc/4.3.3/libgcc.a(_lshrdi3.o)
 .gnu.attributes
                0x00000000000006c0       0x10 /opt/mipsel-linux-uclibc/usr/bin/../lib/gcc/mipsel-linux-uclibc/4.3.3/libgcc.a(_ashldi3.o)
 .gnu.attributes
                0x00000000000006d0       0x10 /opt/mipsel-linux-uclibc/usr/bin/../lib/gcc/mipsel-linux-uclibc/4.3.3/libgcc.a(_ucmpdi2.o)
 .gnu.attributes
                0x00000000000006e0       0x10 /opt/mipsel-linux-uclibc/usr/bin/../lib/gcc/mipsel-linux-uclibc/4.3.3/libgcc.a(_clzsi2.o)
 .gnu.attributes
                0x00000000000006f0       0x10 /opt/mipsel-linux-uclibc/usr/bin/../lib/gcc/mipsel-linux-uclibc/4.3.3/libgcc.a(_pack_sf.o)
 .gnu.attributes
                0x0000000000000700       0x10 /opt/mipsel-linux-uclibc/usr/bin/../lib/gcc/mipsel-linux-uclibc/4.3.3/libgcc.a(_unpack_sf.o)
 .gnu.attributes
                0x0000000000000710       0x10 /opt/mipsel-linux-uclibc/usr/bin/../lib/gcc/mipsel-linux-uclibc/4.3.3/libgcc.a(_fpcmp_parts_sf.o)
 .gnu.attributes
                0x0000000000000720       0x10 /opt/mipsel-linux-uclibc/usr/bin/../lib/gcc/mipsel-linux-uclibc/4.3.3/libgcc.a(_make_sf.o)
 .gnu.attributes
                0x0000000000000730       0x10 /opt/mipsel-linux-uclibc/usr/bin/../lib/gcc/mipsel-linux-uclibc/4.3.3/libgcc.a(_pack_df.o)
 .gnu.attributes
                0x0000000000000740       0x10 /opt/mipsel-linux-uclibc/usr/bin/../lib/gcc/mipsel-linux-uclibc/4.3.3/libgcc.a(_unpack_df.o)
 .gnu.attributes
                0x0000000000000750       0x10 /opt/mipsel-linux-uclibc/usr/bin/../lib/gcc/mipsel-linux-uclibc/4.3.3/libgcc.a(_fpcmp_parts_df.o)
 .gnu.attributes
                0x0000000000000760       0x10 /opt/mipsel-linux-uclibc/usr/bin/../lib/gcc/mipsel-linux-uclibc/4.3.3/libgcc.a(_clz.o)
 .gnu.attributes
                0x0000000000000770       0x10 /opt/mipsel-linux-uclibc/usr/lib/libc.a(mmap.os)
 .gnu.attributes
                0x0000000000000780       0x10 /opt/mipsel-linux-uclibc/usr/lib/libc.a(close.os)
 .gnu.attributes
                0x0000000000000790       0x10 /opt/mipsel-linux-uclibc/usr/lib/libc.a(dup.os)
 .gnu.attributes
                0x00000000000007a0       0x10 /opt/mipsel-linux-uclibc/usr/lib/libc.a(getcwd.os)
 .gnu.attributes
                0x00000000000007b0       0x10 /opt/mipsel-linux-uclibc/usr/lib/libc.a(geteuid.os)
 .gnu.attributes
                0x00000000000007c0       0x10 /opt/mipsel-linux-uclibc/usr/lib/libc.a(getpagesize.os)
 .gnu.attributes
                0x00000000000007d0       0x10 /opt/mipsel-linux-uclibc/usr/lib/libc.a(gettimeofday.os)
 .gnu.attributes
                0x00000000000007e0       0x10 /opt/mipsel-linux-uclibc/usr/lib/libc.a(ioctl.os)
 .gnu.attributes
                0x00000000000007f0       0x10 /opt/mipsel-linux-uclibc/usr/lib/libc.a(longjmp.os)
 .gnu.attributes
                0x0000000000000800       0x10 /opt/mipsel-linux-uclibc/usr/lib/libc.a(mkdir.os)
 .gnu.attributes
                0x0000000000000810       0x10 /opt/mipsel-linux-uclibc/usr/lib/libc.a(munmap.os)
 .gnu.attributes
                0x0000000000000820       0x10 /opt/mipsel-linux-uclibc/usr/lib/libc.a(open.os)
 .gnu.attributes
                0x0000000000000830       0x10 /opt/mipsel-linux-uclibc/usr/lib/libc.a(read.os)
 .gnu.attributes
                0x0000000000000840       0x10 /opt/mipsel-linux-uclibc/usr/lib/libc.a(sigprocmask.os)
 .gnu.attributes
                0x0000000000000850       0x10 /opt/mipsel-linux-uclibc/usr/lib/libc.a(__syscall_fcntl.os)
 .gnu.attributes
                0x0000000000000860       0x10 /opt/mipsel-linux-uclibc/usr/lib/libc.a(write.os)
 .gnu.attributes
                0x0000000000000870       0x10 /opt/mipsel-linux-uclibc/usr/lib/libc.a(__C_ctype_b.os)
 .gnu.attributes
                0x0000000000000880       0x10 /opt/mipsel-linux-uclibc/usr/lib/libc.a(__C_ctype_tolower.os)
 .gnu.attributes
                0x0000000000000890       0x10 /opt/mipsel-linux-uclibc/usr/lib/libc.a(alphasort.os)
 .gnu.attributes
                0x00000000000008a0       0x10 /opt/mipsel-linux-uclibc/usr/lib/libc.a(closedir.os)
 .gnu.attributes
                0x00000000000008b0       0x10 /opt/mipsel-linux-uclibc/usr/lib/libc.a(opendir.os)
 .gnu.attributes
                0x00000000000008c0       0x10 /opt/mipsel-linux-uclibc/usr/lib/libc.a(scandir.os)
 .gnu.attributes
                0x00000000000008d0       0x10 /opt/mipsel-linux-uclibc/usr/lib/libc.a(__errno_location.os)
 .gnu.attributes
                0x00000000000008e0       0x10 /opt/mipsel-linux-uclibc/usr/lib/libc.a(fclose.os)
 .gnu.attributes
                0x00000000000008f0       0x10 /opt/mipsel-linux-uclibc/usr/lib/libc.a(fdopen.os)
 .gnu.attributes
                0x0000000000000900       0x10 /opt/mipsel-linux-uclibc/usr/lib/libc.a(fopen.os)
 .gnu.attributes
                0x0000000000000910       0x10 /opt/mipsel-linux-uclibc/usr/lib/libc.a(fseeko.os)
 .gnu.attributes
                0x0000000000000920       0x10 /opt/mipsel-linux-uclibc/usr/lib/libc.a(ftello.os)
 .gnu.attributes
                0x0000000000000930       0x10 /opt/mipsel-linux-uclibc/usr/lib/libc.a(perror.os)
 .gnu.attributes
                0x0000000000000940       0x10 /opt/mipsel-linux-uclibc/usr/lib/libc.a(puts.os)
 .gnu.attributes
                0x0000000000000950       0x10 /opt/mipsel-linux-uclibc/usr/lib/libc.a(setvbuf.os)
 .gnu.attributes
                0x0000000000000960       0x10 /opt/mipsel-linux-uclibc/usr/lib/libc.a(printf.os)
 .gnu.attributes
                0x0000000000000970       0x10 /opt/mipsel-linux-uclibc/usr/lib/libc.a(vsprintf.os)
 .gnu.attributes
                0x0000000000000980       0x10 /opt/mipsel-linux-uclibc/usr/lib/libc.a(fprintf.os)
 .gnu.attributes
                0x0000000000000990       0x10 /opt/mipsel-linux-uclibc/usr/lib/libc.a(snprintf.os)
 .gnu.attributes
                0x00000000000009a0       0x10 /opt/mipsel-linux-uclibc/usr/lib/libc.a(sprintf.os)
 .gnu.attributes
                0x00000000000009b0       0x10 /opt/mipsel-linux-uclibc/usr/lib/libc.a(vsnprintf.os)
 .gnu.attributes
                0x00000000000009c0       0x10 /opt/mipsel-linux-uclibc/usr/lib/libc.a(fseeko64.os)
 .gnu.attributes
                0x00000000000009d0       0x10 /opt/mipsel-linux-uclibc/usr/lib/libc.a(ftello64.os)
 .gnu.attributes
                0x00000000000009e0       0x10 /opt/mipsel-linux-uclibc/usr/lib/libc.a(_adjust_pos.os)
 .gnu.attributes
                0x00000000000009f0       0x10 /opt/mipsel-linux-uclibc/usr/lib/libc.a(_fopen.os)
 .gnu.attributes
                0x0000000000000a00       0x10 /opt/mipsel-linux-uclibc/usr/lib/libc.a(_stdio.os)
 .gnu.attributes
                0x0000000000000a10       0x10 /opt/mipsel-linux-uclibc/usr/lib/libc.a(_wcommit.os)
 .gnu.attributes
                0x0000000000000a20       0x10 /opt/mipsel-linux-uclibc/usr/lib/libc.a(_cs_funcs.os)
 .gnu.attributes
                0x0000000000000a30       0x10 /opt/mipsel-linux-uclibc/usr/lib/libc.a(vfprintf.os)
 .gnu.attributes
                0x0000000000000a40       0x10 /opt/mipsel-linux-uclibc/usr/lib/libc.a(_vfprintf_internal.os)
 .gnu.attributes
                0x0000000000000a50       0x10 /opt/mipsel-linux-uclibc/usr/lib/libc.a(_ppfs_init.os)
 .gnu.attributes
                0x0000000000000a60       0x10 /opt/mipsel-linux-uclibc/usr/lib/libc.a(_ppfs_prepargs.os)
 .gnu.attributes
                0x0000000000000a70       0x10 /opt/mipsel-linux-uclibc/usr/lib/libc.a(_ppfs_setargs.os)
 .gnu.attributes
                0x0000000000000a80       0x10 /opt/mipsel-linux-uclibc/usr/lib/libc.a(_ppfs_parsespec.os)
 .gnu.attributes
                0x0000000000000a90       0x10 /opt/mipsel-linux-uclibc/usr/lib/libc.a(clearerr.os)
 .gnu.attributes
                0x0000000000000aa0       0x10 /opt/mipsel-linux-uclibc/usr/lib/libc.a(feof.os)
 .gnu.attributes
                0x0000000000000ab0       0x10 /opt/mipsel-linux-uclibc/usr/lib/libc.a(ferror.os)
 .gnu.attributes
                0x0000000000000ac0       0x10 /opt/mipsel-linux-uclibc/usr/lib/libc.a(fflush.os)
 .gnu.attributes
                0x0000000000000ad0       0x10 /opt/mipsel-linux-uclibc/usr/lib/libc.a(fgets.os)
 .gnu.attributes
                0x0000000000000ae0       0x10 /opt/mipsel-linux-uclibc/usr/lib/libc.a(fputc.os)
 .gnu.attributes
                0x0000000000000af0       0x10 /opt/mipsel-linux-uclibc/usr/lib/libc.a(fread.os)
 .gnu.attributes
                0x0000000000000b00       0x10 /opt/mipsel-linux-uclibc/usr/lib/libc.a(fwrite.os)
 .gnu.attributes
                0x0000000000000b10       0x10 /opt/mipsel-linux-uclibc/usr/lib/libc.a(putchar.os)
 .gnu.attributes
                0x0000000000000b20       0x10 /opt/mipsel-linux-uclibc/usr/lib/libc.a(fflush_unlocked.os)
 .gnu.attributes
                0x0000000000000b30       0x10 /opt/mipsel-linux-uclibc/usr/lib/libc.a(fgets_unlocked.os)
 .gnu.attributes
                0x0000000000000b40       0x10 /opt/mipsel-linux-uclibc/usr/lib/libc.a(fputc_unlocked.os)
 .gnu.attributes
                0x0000000000000b50       0x10 /opt/mipsel-linux-uclibc/usr/lib/libc.a(fputs_unlocked.os)
 .gnu.attributes
                0x0000000000000b60       0x10 /opt/mipsel-linux-uclibc/usr/lib/libc.a(fread_unlocked.os)
 .gnu.attributes
                0x0000000000000b70       0x10 /opt/mipsel-linux-uclibc/usr/lib/libc.a(fwrite_unlocked.os)
 .gnu.attributes
                0x0000000000000b80       0x10 /opt/mipsel-linux-uclibc/usr/lib/libc.a(memcmp.os)
 .gnu.attributes
                0x0000000000000b90       0x10 /opt/mipsel-linux-uclibc/usr/lib/libc.a(memmove.os)
 .gnu.attributes
                0x0000000000000ba0       0x10 /opt/mipsel-linux-uclibc/usr/lib/libc.a(strcat.os)
 .gnu.attributes
                0x0000000000000bb0       0x10 /opt/mipsel-linux-uclibc/usr/lib/libc.a(strchr.os)
 .gnu.attributes
                0x0000000000000bc0       0x10 /opt/mipsel-linux-uclibc/usr/lib/libc.a(strcmp.os)
 .gnu.attributes
                0x0000000000000bd0       0x10 /opt/mipsel-linux-uclibc/usr/lib/libc.a(strcpy.os)
 .gnu.attributes
                0x0000000000000be0       0x10 /opt/mipsel-linux-uclibc/usr/lib/libc.a(strlen.os)
 .gnu.attributes
                0x0000000000000bf0       0x10 /opt/mipsel-linux-uclibc/usr/lib/libc.a(strncmp.os)
 .gnu.attributes
                0x0000000000000c00       0x10 /opt/mipsel-linux-uclibc/usr/lib/libc.a(strncpy.os)
 .gnu.attributes
                0x0000000000000c10       0x10 /opt/mipsel-linux-uclibc/usr/lib/libc.a(strnlen.os)
 .gnu.attributes
                0x0000000000000c20       0x10 /opt/mipsel-linux-uclibc/usr/lib/libc.a(strrchr.os)
 .gnu.attributes
                0x0000000000000c30       0x10 /opt/mipsel-linux-uclibc/usr/lib/libc.a(strstr.os)
 .gnu.attributes
                0x0000000000000c40       0x10 /opt/mipsel-linux-uclibc/usr/lib/libc.a(__glibc_strerror_r.os)
 .gnu.attributes
                0x0000000000000c50       0x10 /opt/mipsel-linux-uclibc/usr/lib/libc.a(strcasecmp.os)
 .gnu.attributes
                0x0000000000000c60       0x10 /opt/mipsel-linux-uclibc/usr/lib/libc.a(strerror.os)
 .gnu.attributes
                0x0000000000000c70       0x10 /opt/mipsel-linux-uclibc/usr/lib/libc.a(strncasecmp.os)
 .gnu.attributes
                0x0000000000000c80       0x10 /opt/mipsel-linux-uclibc/usr/lib/libc.a(__xpg_strerror_r.os)
 .gnu.attributes
                0x0000000000000c90       0x10 /opt/mipsel-linux-uclibc/usr/lib/libc.a(isatty.os)
 .gnu.attributes
                0x0000000000000ca0       0x10 /opt/mipsel-linux-uclibc/usr/lib/libc.a(tcgetattr.os)
 .gnu.attributes
                0x0000000000000cb0       0x10 /opt/mipsel-linux-uclibc/usr/lib/libc.a(tcsetattr.os)
 .gnu.attributes
                0x0000000000000cc0       0x10 /opt/mipsel-linux-uclibc/usr/lib/libc.a(malloc.os)
 .gnu.attributes
                0x0000000000000cd0       0x10 /opt/mipsel-linux-uclibc/usr/lib/libc.a(calloc.os)
 .gnu.attributes
                0x0000000000000ce0       0x10 /opt/mipsel-linux-uclibc/usr/lib/libc.a(realloc.os)
 .gnu.attributes
                0x0000000000000cf0       0x10 /opt/mipsel-linux-uclibc/usr/lib/libc.a(free.os)
 .gnu.attributes
                0x0000000000000d00       0x10 /opt/mipsel-linux-uclibc/usr/lib/libc.a(abort.os)
 .gnu.attributes
                0x0000000000000d10       0x10 /opt/mipsel-linux-uclibc/usr/lib/libc.a(system.os)
 .gnu.attributes
                0x0000000000000d20       0x10 /opt/mipsel-linux-uclibc/usr/lib/libc.a(strtol.os)
 .gnu.attributes
                0x0000000000000d30       0x10 /opt/mipsel-linux-uclibc/usr/lib/libc.a(strtoul.os)
 .gnu.attributes
                0x0000000000000d40       0x10 /opt/mipsel-linux-uclibc/usr/lib/libc.a(_stdlib_strto_l.os)
 .gnu.attributes
                0x0000000000000d50       0x10 /opt/mipsel-linux-uclibc/usr/lib/libc.a(qsort.os)
 .gnu.attributes
                0x0000000000000d60       0x10 /opt/mipsel-linux-uclibc/usr/lib/libc.a(strtod.os)
 .gnu.attributes
                0x0000000000000d70       0x10 /opt/mipsel-linux-uclibc/usr/lib/libc.a(__strtofpmax.os)
 .gnu.attributes
                0x0000000000000d80       0x10 /opt/mipsel-linux-uclibc/usr/lib/libc.a(__fp_range_check.os)
 .gnu.attributes
                0x0000000000000d90       0x10 /opt/mipsel-linux-uclibc/usr/lib/libc.a(exit.os)
 .gnu.attributes
                0x0000000000000da0       0x10 /opt/mipsel-linux-uclibc/usr/lib/libc.a(execl.os)
 .gnu.attributes
                0x0000000000000db0       0x10 /opt/mipsel-linux-uclibc/usr/lib/libc.a(sysconf.os)
 .gnu.attributes
                0x0000000000000dc0       0x10 /opt/mipsel-linux-uclibc/usr/lib/libc.a(usleep.os)
 .gnu.attributes
                0x0000000000000dd0       0x10 /opt/mipsel-linux-uclibc/usr/lib/libc.a(__uClibc_main.os)
 .gnu.attributes
                0x0000000000000de0       0x10 /opt/mipsel-linux-uclibc/usr/lib/libc.a(__longjmp.os)
 .gnu.attributes
                0x0000000000000df0       0x10 /opt/mipsel-linux-uclibc/usr/lib/libc.a(setjmp_aux.os)
 .gnu.attributes
                0x0000000000000e00       0x10 /opt/mipsel-linux-uclibc/usr/lib/libc.a(sigaction.os)
 .gnu.attributes
                0x0000000000000e10       0x10 /opt/mipsel-linux-uclibc/usr/lib/libc.a(clock_getres.os)
 .gnu.attributes
                0x0000000000000e20       0x10 /opt/mipsel-linux-uclibc/usr/lib/libc.a(execve.os)
 .gnu.attributes
                0x0000000000000e30       0x10 /opt/mipsel-linux-uclibc/usr/lib/libc.a(_exit.os)
 .gnu.attributes
                0x0000000000000e40       0x10 /opt/mipsel-linux-uclibc/usr/lib/libc.a(fork.os)
 .gnu.attributes
                0x0000000000000e50       0x10 /opt/mipsel-linux-uclibc/usr/lib/libc.a(fstat.os)
 .gnu.attributes
                0x0000000000000e60       0x10 /opt/mipsel-linux-uclibc/usr/lib/libc.a(getdtablesize.os)
 .gnu.attributes
                0x0000000000000e70       0x10 /opt/mipsel-linux-uclibc/usr/lib/libc.a(getegid.os)
 .gnu.attributes
                0x0000000000000e80       0x10 /opt/mipsel-linux-uclibc/usr/lib/libc.a(getgid.os)
 .gnu.attributes
                0x0000000000000e90       0x10 /opt/mipsel-linux-uclibc/usr/lib/libc.a(getrlimit.os)
 .gnu.attributes
                0x0000000000000ea0       0x10 /opt/mipsel-linux-uclibc/usr/lib/libc.a(getuid.os)
 .gnu.attributes
                0x0000000000000eb0       0x10 /opt/mipsel-linux-uclibc/usr/lib/libc.a(llseek.os)
 .gnu.attributes
                0x0000000000000ec0       0x10 /opt/mipsel-linux-uclibc/usr/lib/libc.a(mremap.os)
 .gnu.attributes
                0x0000000000000ed0       0x10 /opt/mipsel-linux-uclibc/usr/lib/libc.a(nanosleep.os)
 .gnu.attributes
                0x0000000000000ee0       0x10 /opt/mipsel-linux-uclibc/usr/lib/libc.a(sbrk.os)
 .gnu.attributes
                0x0000000000000ef0       0x10 /opt/mipsel-linux-uclibc/usr/lib/libc.a(__syscall_fcntl64.os)
 .gnu.attributes
                0x0000000000000f00       0x10 /opt/mipsel-linux-uclibc/usr/lib/libc.a(__syscall_rt_sigaction.os)
 .gnu.attributes
                0x0000000000000f10       0x10 /opt/mipsel-linux-uclibc/usr/lib/libc.a(wait4.os)
 .gnu.attributes
                0x0000000000000f20       0x10 /opt/mipsel-linux-uclibc/usr/lib/libc.a(xstatconv.os)
 .gnu.attributes
                0x0000000000000f30       0x10 /opt/mipsel-linux-uclibc/usr/lib/libc.a(readdir.os)
 .gnu.attributes
                0x0000000000000f40       0x10 /opt/mipsel-linux-uclibc/usr/lib/libc.a(errno.os)
 .gnu.attributes
                0x0000000000000f50       0x10 /opt/mipsel-linux-uclibc/usr/lib/libc.a(_READ.os)
 .gnu.attributes
                0x0000000000000f60       0x10 /opt/mipsel-linux-uclibc/usr/lib/libc.a(_WRITE.os)
 .gnu.attributes
                0x0000000000000f70       0x10 /opt/mipsel-linux-uclibc/usr/lib/libc.a(_fwrite.os)
 .gnu.attributes
                0x0000000000000f80       0x10 /opt/mipsel-linux-uclibc/usr/lib/libc.a(_trans2r.os)
 .gnu.attributes
                0x0000000000000f90       0x10 /opt/mipsel-linux-uclibc/usr/lib/libc.a(_trans2w.os)
 .gnu.attributes
                0x0000000000000fa0       0x10 /opt/mipsel-linux-uclibc/usr/lib/libc.a(_load_inttype.os)
 .gnu.attributes
                0x0000000000000fb0       0x10 /opt/mipsel-linux-uclibc/usr/lib/libc.a(_store_inttype.os)
 .gnu.attributes
                0x0000000000000fc0       0x10 /opt/mipsel-linux-uclibc/usr/lib/libc.a(_uintmaxtostr.os)
 .gnu.attributes
                0x0000000000000fd0       0x10 /opt/mipsel-linux-uclibc/usr/lib/libc.a(_fpmaxtostr.os)
 .gnu.attributes
                0x0000000000000fe0       0x10 /opt/mipsel-linux-uclibc/usr/lib/libc.a(fgetc_unlocked.os)
 .gnu.attributes
                0x0000000000000ff0       0x10 /opt/mipsel-linux-uclibc/usr/lib/libc.a(memchr.os)
 .gnu.attributes
                0x0000000000001000       0x10 /opt/mipsel-linux-uclibc/usr/lib/libc.a(mempcpy.os)
 .gnu.attributes
                0x0000000000001010       0x10 /opt/mipsel-linux-uclibc/usr/lib/libc.a(memrchr.os)
 .gnu.attributes
                0x0000000000001020       0x10 /opt/mipsel-linux-uclibc/usr/lib/libc.a(_string_syserrmsgs.os)
 .gnu.attributes
                0x0000000000001030       0x10 /opt/mipsel-linux-uclibc/usr/lib/libc.a(raise.os)
 .gnu.attributes
                0x0000000000001040       0x10 /opt/mipsel-linux-uclibc/usr/lib/libc.a(sigjmp.os)
 .gnu.attributes
                0x0000000000001050       0x10 /opt/mipsel-linux-uclibc/usr/lib/libc.a(signal.os)
 .gnu.attributes
                0x0000000000001060       0x10 /opt/mipsel-linux-uclibc/usr/lib/libc.a(sigsetops.os)
 .gnu.attributes
                0x0000000000001070       0x10 /opt/mipsel-linux-uclibc/usr/lib/libc.a(dl-support.os)
 .gnu.attributes
                0x0000000000001080       0x10 /opt/mipsel-linux-uclibc/usr/lib/libc.a(brk.os)
 .gnu.attributes
                0x0000000000001090       0x10 /opt/mipsel-linux-uclibc/usr/lib/libc.a(getdents.os)
 .gnu.attributes
                0x00000000000010a0       0x10 /opt/mipsel-linux-uclibc/usr/lib/libc.a(getpid.os)
 .gnu.attributes
                0x00000000000010b0       0x10 /opt/mipsel-linux-uclibc/usr/lib/libc.a(kill.os)
 .gnu.attributes
                0x00000000000010c0       0x10 /opt/mipsel-linux-uclibc/usr/lib/libc.a(_rfill.os)
 .gnu.attributes
                0x00000000000010d0       0x10 /opt/mipsel-linux-uclibc/usr/lib/libc.a(getdents64.os)
 .gnu.attributes
                0x00000000000010e0       0x10 /opt/mipsel-linux-uclibc/usr/bin/../lib/gcc/mipsel-linux-uclibc/4.3.3/libgcc.a(_ne_df.o)
 .gnu.attributes
                0x00000000000010f0       0x10 /opt/mipsel-linux-uclibc/usr/bin/../lib/gcc/mipsel-linux-uclibc/4.3.3/crtend.o

.gptab.sdata
 *(.gptab.data)
 *(.gptab.sdata)

.gptab.sbss
 *(.gptab.bss)
 *(.gptab.sbss)

.mdebug.abi32   0x0000000000001100        0x0
 *(.mdebug.abi32)
 .mdebug.abi32  0x0000000000001100        0x0 /opt/mipsel-linux-uclibc/usr/lib/crti.o
 .mdebug.abi32  0x0000000000001100        0x0 /opt/mipsel-linux-uclibc/usr/bin/../lib/gcc/mipsel-linux-uclibc/4.3.3/crtbeginT.o
 .mdebug.abi32  0x0000000000001100        0x0 platform/gp2x/main.o
 .mdebug.abi32  0x0000000000001100        0x0 platform/gp2x/menu.o
 .mdebug.abi32  0x0000000000001100        0x0 platform/gp2x/emu.o
 .mdebug.abi32  0x0000000000001100        0x0 platform/gp2x/usbjoy.o
 .mdebug.abi32  0x0000000000001100        0x0 blit.o
 .mdebug.abi32  0x0000000000001100        0x0 gp2x.o
 .mdebug.abi32  0x0000000000001100        0x0 log_io.o
 .mdebug.abi32  0x0000000000001100        0x0 platform/common/emu.o
 .mdebug.abi32  0x0000000000001100        0x0 platform/common/menu.o
 .mdebug.abi32  0x0000000000001100        0x0 platform/common/fonts.o
 .mdebug.abi32  0x0000000000001100        0x0 platform/common/readpng.o
 .mdebug.abi32  0x0000000000001100        0x0 platform/common/mp3_helix.o
 .mdebug.abi32  0x0000000000001100        0x0 Pico/Area.o
 .mdebug.abi32  0x0000000000001100        0x0 Pico/Cart.o
 .mdebug.abi32  0x0000000000001100        0x0 Pico/Memory.o
 .mdebug.abi32  0x0000000000001100        0x0 Pico/Misc.o
 .mdebug.abi32  0x0000000000001100        0x0 Pico/Pico.o
 .mdebug.abi32  0x0000000000001100        0x0 Pico/Sek.o
 .mdebug.abi32  0x0000000000001100        0x0 Pico/VideoPort.o
 .mdebug.abi32  0x0000000000001100        0x0 Pico/Draw2.o
 .mdebug.abi32  0x0000000000001100        0x0 Pico/Draw.o
 .mdebug.abi32  0x0000000000001100        0x0 Pico/Patch.o
 .mdebug.abi32  0x0000000000001100        0x0 Pico/cd/Pico.o
 .mdebug.abi32  0x0000000000001100        0x0 Pico/cd/Memory.o
 .mdebug.abi32  0x0000000000001100        0x0 Pico/cd/Sek.o
 .mdebug.abi32  0x0000000000001100        0x0 Pico/cd/LC89510.o
 .mdebug.abi32  0x0000000000001100        0x0 Pico/cd/cd_sys.o
 .mdebug.abi32  0x0000000000001100        0x0 Pico/cd/cd_file.o
 .mdebug.abi32  0x0000000000001100        0x0 Pico/cd/gfx_cd.o
 .mdebug.abi32  0x0000000000001100        0x0 Pico/cd/Area.o
 .mdebug.abi32  0x0000000000001100        0x0 Pico/cd/Misc.o
 .mdebug.abi32  0x0000000000001100        0x0 Pico/cd/pcm.o
 .mdebug.abi32  0x0000000000001100        0x0 Pico/cd/buffering.o
 .mdebug.abi32  0x0000000000001100        0x0 Pico/sound/sound.o
 .mdebug.abi32  0x0000000000001100        0x0 Pico/sound/sn76496.o
 .mdebug.abi32  0x0000000000001100        0x0 Pico/sound/ym2612.o
 .mdebug.abi32  0x0000000000001100        0x0 Pico/sound/mix.o
 .mdebug.abi32  0x0000000000001100        0x0 zlib/gzio.o
 .mdebug.abi32  0x0000000000001100        0x0 zlib/inffast.o
 .mdebug.abi32  0x0000000000001100        0x0 zlib/inflate.o
 .mdebug.abi32  0x0000000000001100        0x0 zlib/inftrees.o
 .mdebug.abi32  0x0000000000001100        0x0 zlib/trees.o
 .mdebug.abi32  0x0000000000001100        0x0 zlib/deflate.o
 .mdebug.abi32  0x0000000000001100        0x0 zlib/crc32.o
 .mdebug.abi32  0x0000000000001100        0x0 zlib/adler32.o
 .mdebug.abi32  0x0000000000001100        0x0 zlib/zutil.o
 .mdebug.abi32  0x0000000000001100        0x0 zlib/compress.o
 .mdebug.abi32  0x0000000000001100        0x0 zlib/uncompr.o
 .mdebug.abi32  0x0000000000001100        0x0 unzip/unzip.o
 .mdebug.abi32  0x0000000000001100        0x0 unzip/unzip_stream.o
 .mdebug.abi32  0x0000000000001100        0x0 cpu/musashi/m68kops.o
 .mdebug.abi32  0x0000000000001100        0x0 cpu/musashi/m68kcpu.o
 .mdebug.abi32  0x0000000000001100        0x0 cpu/fame/famec.o
 .mdebug.abi32  0x0000000000001100        0x0 cpu/cz80/cz80.o
 .mdebug.abi32  0x0000000000001100        0x0 Pico/Debug.o
 .mdebug.abi32  0x0000000000001100        0x0 cpu/musashi/m68kdasm.o
 .mdebug.abi32  0x0000000000001100        0x0 /opt/mipsel-linux-uclibc/usr/lib/libm.a(s_floor.os)
 .mdebug.abi32  0x0000000000001100        0x0 /opt/mipsel-linux-uclibc/usr/lib/libm.a(s_sin.os)
 .mdebug.abi32  0x0000000000001100        0x0 /opt/mipsel-linux-uclibc/usr/lib/libm.a(w_log.os)
 .mdebug.abi32  0x0000000000001100        0x0 /opt/mipsel-linux-uclibc/usr/lib/libm.a(w_pow.os)
 .mdebug.abi32  0x0000000000001100        0x0 /opt/mipsel-linux-uclibc/usr/lib/libm.a(e_log.os)
 .mdebug.abi32  0x0000000000001100        0x0 /opt/mipsel-linux-uclibc/usr/lib/libm.a(e_pow.os)
 .mdebug.abi32  0x0000000000001100        0x0 /opt/mipsel-linux-uclibc/usr/lib/libm.a(e_rem_pio2.os)
 .mdebug.abi32  0x0000000000001100        0x0 /opt/mipsel-linux-uclibc/usr/lib/libm.a(e_sqrt.os)
 .mdebug.abi32  0x0000000000001100        0x0 /opt/mipsel-linux-uclibc/usr/lib/libm.a(k_cos.os)
 .mdebug.abi32  0x0000000000001100        0x0 /opt/mipsel-linux-uclibc/usr/lib/libm.a(k_rem_pio2.os)
 .mdebug.abi32  0x0000000000001100        0x0 /opt/mipsel-linux-uclibc/usr/lib/libm.a(k_sin.os)
 .mdebug.abi32  0x0000000000001100        0x0 /opt/mipsel-linux-uclibc/usr/lib/libm.a(s_fabs.os)
 .mdebug.abi32  0x0000000000001100        0x0 /opt/mipsel-linux-uclibc/usr/lib/libm.a(s_scalbn.os)
 .mdebug.abi32  0x0000000000001100        0x0 /opt/mipsel-linux-uclibc/usr/lib/libm.a(s_copysign.os)
 .mdebug.abi32  0x0000000000001100        0x0 /opt/mipsel-linux-uclibc/usr/lib/libpng.a(libpng12_la-png.o)
 .mdebug.abi32  0x0000000000001100        0x0 /opt/mipsel-linux-uclibc/usr/lib/libpng.a(libpng12_la-pngget.o)
 .mdebug.abi32  0x0000000000001100        0x0 /opt/mipsel-linux-uclibc/usr/lib/libpng.a(libpng12_la-pngread.o)
 .mdebug.abi32  0x0000000000001100        0x0 /opt/mipsel-linux-uclibc/usr/lib/libpng.a(libpng12_la-pngrio.o)
 .mdebug.abi32  0x0000000000001100        0x0 /opt/mipsel-linux-uclibc/usr/lib/libpng.a(libpng12_la-pngrtran.o)
 .mdebug.abi32  0x0000000000001100        0x0 /opt/mipsel-linux-uclibc/usr/lib/libpng.a(libpng12_la-pngmem.o)
 .mdebug.abi32  0x0000000000001100        0x0 /opt/mipsel-linux-uclibc/usr/lib/libpng.a(libpng12_la-pngerror.o)
 .mdebug.abi32  0x0000000000001100        0x0 /opt/mipsel-linux-uclibc/usr/lib/libpng.a(libpng12_la-pngrutil.o)
 .mdebug.abi32  0x0000000000001100        0x0 /opt/mipsel-linux-uclibc/usr/lib/libpng.a(libpng12_la-pngtrans.o)
 .mdebug.abi32  0x0000000000001100        0x0 /opt/mipsel-linux-uclibc/usr/lib/libpng.a(libpng12_la-pngset.o)
 .mdebug.abi32  0x0000000000001100        0x0 /opt/mipsel-linux-uclibc/usr/bin/../lib/gcc/mipsel-linux-uclibc/4.3.3/libgcc.a(_fixunssfsi.o)
 .mdebug.abi32  0x0000000000001100        0x0 /opt/mipsel-linux-uclibc/usr/bin/../lib/gcc/mipsel-linux-uclibc/4.3.3/libgcc.a(_fixunsdfsi.o)
 .mdebug.abi32  0x0000000000001100        0x0 /opt/mipsel-linux-uclibc/usr/bin/../lib/gcc/mipsel-linux-uclibc/4.3.3/libgcc.a(_addsub_sf.o)
 .mdebug.abi32  0x0000000000001100        0x0 /opt/mipsel-linux-uclibc/usr/bin/../lib/gcc/mipsel-linux-uclibc/4.3.3/libgcc.a(_mul_sf.o)
 .mdebug.abi32  0x0000000000001100        0x0 /opt/mipsel-linux-uclibc/usr/bin/../lib/gcc/mipsel-linux-uclibc/4.3.3/libgcc.a(_div_sf.o)
 .mdebug.abi32  0x0000000000001100        0x0 /opt/mipsel-linux-uclibc/usr/bin/../lib/gcc/mipsel-linux-uclibc/4.3.3/libgcc.a(_ne_sf.o)
 .mdebug.abi32  0x0000000000001100        0x0 /opt/mipsel-linux-uclibc/usr/bin/../lib/gcc/mipsel-linux-uclibc/4.3.3/libgcc.a(_ge_sf.o)
 .mdebug.abi32  0x0000000000001100        0x0 /opt/mipsel-linux-uclibc/usr/bin/../lib/gcc/mipsel-linux-uclibc/4.3.3/libgcc.a(_si_to_sf.o)
 .mdebug.abi32  0x0000000000001100        0x0 /opt/mipsel-linux-uclibc/usr/bin/../lib/gcc/mipsel-linux-uclibc/4.3.3/libgcc.a(_sf_to_si.o)
 .mdebug.abi32  0x0000000000001100        0x0 /opt/mipsel-linux-uclibc/usr/bin/../lib/gcc/mipsel-linux-uclibc/4.3.3/libgcc.a(_sf_to_df.o)
 .mdebug.abi32  0x0000000000001100        0x0 /opt/mipsel-linux-uclibc/usr/bin/../lib/gcc/mipsel-linux-uclibc/4.3.3/libgcc.a(_thenan_sf.o)
 .mdebug.abi32  0x0000000000001100        0x0 /opt/mipsel-linux-uclibc/usr/bin/../lib/gcc/mipsel-linux-uclibc/4.3.3/libgcc.a(_usi_to_sf.o)
 .mdebug.abi32  0x0000000000001100        0x0 /opt/mipsel-linux-uclibc/usr/bin/../lib/gcc/mipsel-linux-uclibc/4.3.3/libgcc.a(_addsub_df.o)
 .mdebug.abi32  0x0000000000001100        0x0 /opt/mipsel-linux-uclibc/usr/bin/../lib/gcc/mipsel-linux-uclibc/4.3.3/libgcc.a(_mul_df.o)
 .mdebug.abi32  0x0000000000001100        0x0 /opt/mipsel-linux-uclibc/usr/bin/../lib/gcc/mipsel-linux-uclibc/4.3.3/libgcc.a(_div_df.o)
 .mdebug.abi32  0x0000000000001100        0x0 /opt/mipsel-linux-uclibc/usr/bin/../lib/gcc/mipsel-linux-uclibc/4.3.3/libgcc.a(_eq_df.o)
 .mdebug.abi32  0x0000000000001100        0x0 /opt/mipsel-linux-uclibc/usr/bin/../lib/gcc/mipsel-linux-uclibc/4.3.3/libgcc.a(_gt_df.o)
 .mdebug.abi32  0x0000000000001100        0x0 /opt/mipsel-linux-uclibc/usr/bin/../lib/gcc/mipsel-linux-uclibc/4.3.3/libgcc.a(_ge_df.o)
 .mdebug.abi32  0x0000000000001100        0x0 /opt/mipsel-linux-uclibc/usr/bin/../lib/gcc/mipsel-linux-uclibc/4.3.3/libgcc.a(_lt_df.o)
 .mdebug.abi32  0x0000000000001100        0x0 /opt/mipsel-linux-uclibc/usr/bin/../lib/gcc/mipsel-linux-uclibc/4.3.3/libgcc.a(_le_df.o)
 .mdebug.abi32  0x0000000000001100        0x0 /opt/mipsel-linux-uclibc/usr/bin/../lib/gcc/mipsel-linux-uclibc/4.3.3/libgcc.a(_si_to_df.o)
 .mdebug.abi32  0x0000000000001100        0x0 /opt/mipsel-linux-uclibc/usr/bin/../lib/gcc/mipsel-linux-uclibc/4.3.3/libgcc.a(_df_to_si.o)
 .mdebug.abi32  0x0000000000001100        0x0 /opt/mipsel-linux-uclibc/usr/bin/../lib/gcc/mipsel-linux-uclibc/4.3.3/libgcc.a(_make_df.o)
 .mdebug.abi32  0x0000000000001100        0x0 /opt/mipsel-linux-uclibc/usr/bin/../lib/gcc/mipsel-linux-uclibc/4.3.3/libgcc.a(_df_to_sf.o)
 .mdebug.abi32  0x0000000000001100        0x0 /opt/mipsel-linux-uclibc/usr/bin/../lib/gcc/mipsel-linux-uclibc/4.3.3/libgcc.a(_thenan_df.o)
 .mdebug.abi32  0x0000000000001100        0x0 /opt/mipsel-linux-uclibc/usr/bin/../lib/gcc/mipsel-linux-uclibc/4.3.3/libgcc.a(_usi_to_df.o)
 .mdebug.abi32  0x0000000000001100        0x0 /opt/mipsel-linux-uclibc/usr/bin/../lib/gcc/mipsel-linux-uclibc/4.3.3/libgcc.a(_lshrdi3.o)
 .mdebug.abi32  0x0000000000001100        0x0 /opt/mipsel-linux-uclibc/usr/bin/../lib/gcc/mipsel-linux-uclibc/4.3.3/libgcc.a(_ashldi3.o)
 .mdebug.abi32  0x0000000000001100        0x0 /opt/mipsel-linux-uclibc/usr/bin/../lib/gcc/mipsel-linux-uclibc/4.3.3/libgcc.a(_ucmpdi2.o)
 .mdebug.abi32  0x0000000000001100        0x0 /opt/mipsel-linux-uclibc/usr/bin/../lib/gcc/mipsel-linux-uclibc/4.3.3/libgcc.a(_clzsi2.o)
 .mdebug.abi32  0x0000000000001100        0x0 /opt/mipsel-linux-uclibc/usr/bin/../lib/gcc/mipsel-linux-uclibc/4.3.3/libgcc.a(_pack_sf.o)
 .mdebug.abi32  0x0000000000001100        0x0 /opt/mipsel-linux-uclibc/usr/bin/../lib/gcc/mipsel-linux-uclibc/4.3.3/libgcc.a(_unpack_sf.o)
 .mdebug.abi32  0x0000000000001100        0x0 /opt/mipsel-linux-uclibc/usr/bin/../lib/gcc/mipsel-linux-uclibc/4.3.3/libgcc.a(_fpcmp_parts_sf.o)
 .mdebug.abi32  0x0000000000001100        0x0 /opt/mipsel-linux-uclibc/usr/bin/../lib/gcc/mipsel-linux-uclibc/4.3.3/libgcc.a(_make_sf.o)
 .mdebug.abi32  0x0000000000001100        0x0 /opt/mipsel-linux-uclibc/usr/bin/../lib/gcc/mipsel-linux-uclibc/4.3.3/libgcc.a(_pack_df.o)
 .mdebug.abi32  0x0000000000001100        0x0 /opt/mipsel-linux-uclibc/usr/bin/../lib/gcc/mipsel-linux-uclibc/4.3.3/libgcc.a(_unpack_df.o)
 .mdebug.abi32  0x0000000000001100        0x0 /opt/mipsel-linux-uclibc/usr/bin/../lib/gcc/mipsel-linux-uclibc/4.3.3/libgcc.a(_fpcmp_parts_df.o)
 .mdebug.abi32  0x0000000000001100        0x0 /opt/mipsel-linux-uclibc/usr/bin/../lib/gcc/mipsel-linux-uclibc/4.3.3/libgcc.a(_clz.o)
 .mdebug.abi32  0x0000000000001100        0x0 /opt/mipsel-linux-uclibc/usr/lib/libc.a(mmap.os)
 .mdebug.abi32  0x0000000000001100        0x0 /opt/mipsel-linux-uclibc/usr/lib/libc.a(close.os)
 .mdebug.abi32  0x0000000000001100        0x0 /opt/mipsel-linux-uclibc/usr/lib/libc.a(dup.os)
 .mdebug.abi32  0x0000000000001100        0x0 /opt/mipsel-linux-uclibc/usr/lib/libc.a(getcwd.os)
 .mdebug.abi32  0x0000000000001100        0x0 /opt/mipsel-linux-uclibc/usr/lib/libc.a(geteuid.os)
 .mdebug.abi32  0x0000000000001100        0x0 /opt/mipsel-linux-uclibc/usr/lib/libc.a(getpagesize.os)
 .mdebug.abi32  0x0000000000001100        0x0 /opt/mipsel-linux-uclibc/usr/lib/libc.a(gettimeofday.os)
 .mdebug.abi32  0x0000000000001100        0x0 /opt/mipsel-linux-uclibc/usr/lib/libc.a(ioctl.os)
 .mdebug.abi32  0x0000000000001100        0x0 /opt/mipsel-linux-uclibc/usr/lib/libc.a(longjmp.os)
 .mdebug.abi32  0x0000000000001100        0x0 /opt/mipsel-linux-uclibc/usr/lib/libc.a(mkdir.os)
 .mdebug.abi32  0x0000000000001100        0x0 /opt/mipsel-linux-uclibc/usr/lib/libc.a(munmap.os)
 .mdebug.abi32  0x0000000000001100        0x0 /opt/mipsel-linux-uclibc/usr/lib/libc.a(open.os)
 .mdebug.abi32  0x0000000000001100        0x0 /opt/mipsel-linux-uclibc/usr/lib/libc.a(read.os)
 .mdebug.abi32  0x0000000000001100        0x0 /opt/mipsel-linux-uclibc/usr/lib/libc.a(sigprocmask.os)
 .mdebug.abi32  0x0000000000001100        0x0 /opt/mipsel-linux-uclibc/usr/lib/libc.a(__syscall_fcntl.os)
 .mdebug.abi32  0x0000000000001100        0x0 /opt/mipsel-linux-uclibc/usr/lib/libc.a(write.os)
 .mdebug.abi32  0x0000000000001100        0x0 /opt/mipsel-linux-uclibc/usr/lib/libc.a(__C_ctype_b.os)
 .mdebug.abi32  0x0000000000001100        0x0 /opt/mipsel-linux-uclibc/usr/lib/libc.a(__C_ctype_tolower.os)
 .mdebug.abi32  0x0000000000001100        0x0 /opt/mipsel-linux-uclibc/usr/lib/libc.a(alphasort.os)
 .mdebug.abi32  0x0000000000001100        0x0 /opt/mipsel-linux-uclibc/usr/lib/libc.a(closedir.os)
 .mdebug.abi32  0x0000000000001100        0x0 /opt/mipsel-linux-uclibc/usr/lib/libc.a(opendir.os)
 .mdebug.abi32  0x0000000000001100        0x0 /opt/mipsel-linux-uclibc/usr/lib/libc.a(scandir.os)
 .mdebug.abi32  0x0000000000001100        0x0 /opt/mipsel-linux-uclibc/usr/lib/libc.a(__errno_location.os)
 .mdebug.abi32  0x0000000000001100        0x0 /opt/mipsel-linux-uclibc/usr/lib/libc.a(fclose.os)
 .mdebug.abi32  0x0000000000001100        0x0 /opt/mipsel-linux-uclibc/usr/lib/libc.a(fdopen.os)
 .mdebug.abi32  0x0000000000001100        0x0 /opt/mipsel-linux-uclibc/usr/lib/libc.a(fopen.os)
 .mdebug.abi32  0x0000000000001100        0x0 /opt/mipsel-linux-uclibc/usr/lib/libc.a(fseeko.os)
 .mdebug.abi32  0x0000000000001100        0x0 /opt/mipsel-linux-uclibc/usr/lib/libc.a(ftello.os)
 .mdebug.abi32  0x0000000000001100        0x0 /opt/mipsel-linux-uclibc/usr/lib/libc.a(perror.os)
 .mdebug.abi32  0x0000000000001100        0x0 /opt/mipsel-linux-uclibc/usr/lib/libc.a(puts.os)
 .mdebug.abi32  0x0000000000001100        0x0 /opt/mipsel-linux-uclibc/usr/lib/libc.a(setvbuf.os)
 .mdebug.abi32  0x0000000000001100        0x0 /opt/mipsel-linux-uclibc/usr/lib/libc.a(printf.os)
 .mdebug.abi32  0x0000000000001100        0x0 /opt/mipsel-linux-uclibc/usr/lib/libc.a(vsprintf.os)
 .mdebug.abi32  0x0000000000001100        0x0 /opt/mipsel-linux-uclibc/usr/lib/libc.a(fprintf.os)
 .mdebug.abi32  0x0000000000001100        0x0 /opt/mipsel-linux-uclibc/usr/lib/libc.a(snprintf.os)
 .mdebug.abi32  0x0000000000001100        0x0 /opt/mipsel-linux-uclibc/usr/lib/libc.a(sprintf.os)
 .mdebug.abi32  0x0000000000001100        0x0 /opt/mipsel-linux-uclibc/usr/lib/libc.a(vsnprintf.os)
 .mdebug.abi32  0x0000000000001100        0x0 /opt/mipsel-linux-uclibc/usr/lib/libc.a(fseeko64.os)
 .mdebug.abi32  0x0000000000001100        0x0 /opt/mipsel-linux-uclibc/usr/lib/libc.a(ftello64.os)
 .mdebug.abi32  0x0000000000001100        0x0 /opt/mipsel-linux-uclibc/usr/lib/libc.a(_adjust_pos.os)
 .mdebug.abi32  0x0000000000001100        0x0 /opt/mipsel-linux-uclibc/usr/lib/libc.a(_fopen.os)
 .mdebug.abi32  0x0000000000001100        0x0 /opt/mipsel-linux-uclibc/usr/lib/libc.a(_stdio.os)
 .mdebug.abi32  0x0000000000001100        0x0 /opt/mipsel-linux-uclibc/usr/lib/libc.a(_wcommit.os)
 .mdebug.abi32  0x0000000000001100        0x0 /opt/mipsel-linux-uclibc/usr/lib/libc.a(_cs_funcs.os)
 .mdebug.abi32  0x0000000000001100        0x0 /opt/mipsel-linux-uclibc/usr/lib/libc.a(vfprintf.os)
 .mdebug.abi32  0x0000000000001100        0x0 /opt/mipsel-linux-uclibc/usr/lib/libc.a(_vfprintf_internal.os)
 .mdebug.abi32  0x0000000000001100        0x0 /opt/mipsel-linux-uclibc/usr/lib/libc.a(_ppfs_init.os)
 .mdebug.abi32  0x0000000000001100        0x0 /opt/mipsel-linux-uclibc/usr/lib/libc.a(_ppfs_prepargs.os)
 .mdebug.abi32  0x0000000000001100        0x0 /opt/mipsel-linux-uclibc/usr/lib/libc.a(_ppfs_setargs.os)
 .mdebug.abi32  0x0000000000001100        0x0 /opt/mipsel-linux-uclibc/usr/lib/libc.a(_ppfs_parsespec.os)
 .mdebug.abi32  0x0000000000001100        0x0 /opt/mipsel-linux-uclibc/usr/lib/libc.a(clearerr.os)
 .mdebug.abi32  0x0000000000001100        0x0 /opt/mipsel-linux-uclibc/usr/lib/libc.a(feof.os)
 .mdebug.abi32  0x0000000000001100        0x0 /opt/mipsel-linux-uclibc/usr/lib/libc.a(ferror.os)
 .mdebug.abi32  0x0000000000001100        0x0 /opt/mipsel-linux-uclibc/usr/lib/libc.a(fflush.os)
 .mdebug.abi32  0x0000000000001100        0x0 /opt/mipsel-linux-uclibc/usr/lib/libc.a(fgets.os)
 .mdebug.abi32  0x0000000000001100        0x0 /opt/mipsel-linux-uclibc/usr/lib/libc.a(fputc.os)
 .mdebug.abi32  0x0000000000001100        0x0 /opt/mipsel-linux-uclibc/usr/lib/libc.a(fread.os)
 .mdebug.abi32  0x0000000000001100        0x0 /opt/mipsel-linux-uclibc/usr/lib/libc.a(fwrite.os)
 .mdebug.abi32  0x0000000000001100        0x0 /opt/mipsel-linux-uclibc/usr/lib/libc.a(putchar.os)
 .mdebug.abi32  0x0000000000001100        0x0 /opt/mipsel-linux-uclibc/usr/lib/libc.a(fflush_unlocked.os)
 .mdebug.abi32  0x0000000000001100        0x0 /opt/mipsel-linux-uclibc/usr/lib/libc.a(fgets_unlocked.os)
 .mdebug.abi32  0x0000000000001100        0x0 /opt/mipsel-linux-uclibc/usr/lib/libc.a(fputc_unlocked.os)
 .mdebug.abi32  0x0000000000001100        0x0 /opt/mipsel-linux-uclibc/usr/lib/libc.a(fputs_unlocked.os)
 .mdebug.abi32  0x0000000000001100        0x0 /opt/mipsel-linux-uclibc/usr/lib/libc.a(fread_unlocked.os)
 .mdebug.abi32  0x0000000000001100        0x0 /opt/mipsel-linux-uclibc/usr/lib/libc.a(fwrite_unlocked.os)
 .mdebug.abi32  0x0000000000001100        0x0 /opt/mipsel-linux-uclibc/usr/lib/libc.a(memcmp.os)
 .mdebug.abi32  0x0000000000001100        0x0 /opt/mipsel-linux-uclibc/usr/lib/libc.a(memmove.os)
 .mdebug.abi32  0x0000000000001100        0x0 /opt/mipsel-linux-uclibc/usr/lib/libc.a(strcat.os)
 .mdebug.abi32  0x0000000000001100        0x0 /opt/mipsel-linux-uclibc/usr/lib/libc.a(strchr.os)
 .mdebug.abi32  0x0000000000001100        0x0 /opt/mipsel-linux-uclibc/usr/lib/libc.a(strcmp.os)
 .mdebug.abi32  0x0000000000001100        0x0 /opt/mipsel-linux-uclibc/usr/lib/libc.a(strcpy.os)
 .mdebug.abi32  0x0000000000001100        0x0 /opt/mipsel-linux-uclibc/usr/lib/libc.a(strlen.os)
 .mdebug.abi32  0x0000000000001100        0x0 /opt/mipsel-linux-uclibc/usr/lib/libc.a(strncmp.os)
 .mdebug.abi32  0x0000000000001100        0x0 /opt/mipsel-linux-uclibc/usr/lib/libc.a(strncpy.os)
 .mdebug.abi32  0x0000000000001100        0x0 /opt/mipsel-linux-uclibc/usr/lib/libc.a(strnlen.os)
 .mdebug.abi32  0x0000000000001100        0x0 /opt/mipsel-linux-uclibc/usr/lib/libc.a(strrchr.os)
 .mdebug.abi32  0x0000000000001100        0x0 /opt/mipsel-linux-uclibc/usr/lib/libc.a(strstr.os)
 .mdebug.abi32  0x0000000000001100        0x0 /opt/mipsel-linux-uclibc/usr/lib/libc.a(__glibc_strerror_r.os)
 .mdebug.abi32  0x0000000000001100        0x0 /opt/mipsel-linux-uclibc/usr/lib/libc.a(strcasecmp.os)
 .mdebug.abi32  0x0000000000001100        0x0 /opt/mipsel-linux-uclibc/usr/lib/libc.a(strerror.os)
 .mdebug.abi32  0x0000000000001100        0x0 /opt/mipsel-linux-uclibc/usr/lib/libc.a(strncasecmp.os)
 .mdebug.abi32  0x0000000000001100        0x0 /opt/mipsel-linux-uclibc/usr/lib/libc.a(__xpg_strerror_r.os)
 .mdebug.abi32  0x0000000000001100        0x0 /opt/mipsel-linux-uclibc/usr/lib/libc.a(isatty.os)
 .mdebug.abi32  0x0000000000001100        0x0 /opt/mipsel-linux-uclibc/usr/lib/libc.a(tcgetattr.os)
 .mdebug.abi32  0x0000000000001100        0x0 /opt/mipsel-linux-uclibc/usr/lib/libc.a(tcsetattr.os)
 .mdebug.abi32  0x0000000000001100        0x0 /opt/mipsel-linux-uclibc/usr/lib/libc.a(malloc.os)
 .mdebug.abi32  0x0000000000001100        0x0 /opt/mipsel-linux-uclibc/usr/lib/libc.a(calloc.os)
 .mdebug.abi32  0x0000000000001100        0x0 /opt/mipsel-linux-uclibc/usr/lib/libc.a(realloc.os)
 .mdebug.abi32  0x0000000000001100        0x0 /opt/mipsel-linux-uclibc/usr/lib/libc.a(free.os)
 .mdebug.abi32  0x0000000000001100        0x0 /opt/mipsel-linux-uclibc/usr/lib/libc.a(abort.os)
 .mdebug.abi32  0x0000000000001100        0x0 /opt/mipsel-linux-uclibc/usr/lib/libc.a(system.os)
 .mdebug.abi32  0x0000000000001100        0x0 /opt/mipsel-linux-uclibc/usr/lib/libc.a(strtol.os)
 .mdebug.abi32  0x0000000000001100        0x0 /opt/mipsel-linux-uclibc/usr/lib/libc.a(strtoul.os)
 .mdebug.abi32  0x0000000000001100        0x0 /opt/mipsel-linux-uclibc/usr/lib/libc.a(_stdlib_strto_l.os)
 .mdebug.abi32  0x0000000000001100        0x0 /opt/mipsel-linux-uclibc/usr/lib/libc.a(qsort.os)
 .mdebug.abi32  0x0000000000001100        0x0 /opt/mipsel-linux-uclibc/usr/lib/libc.a(strtod.os)
 .mdebug.abi32  0x0000000000001100        0x0 /opt/mipsel-linux-uclibc/usr/lib/libc.a(__strtofpmax.os)
 .mdebug.abi32  0x0000000000001100        0x0 /opt/mipsel-linux-uclibc/usr/lib/libc.a(__fp_range_check.os)
 .mdebug.abi32  0x0000000000001100        0x0 /opt/mipsel-linux-uclibc/usr/lib/libc.a(exit.os)
 .mdebug.abi32  0x0000000000001100        0x0 /opt/mipsel-linux-uclibc/usr/lib/libc.a(execl.os)
 .mdebug.abi32  0x0000000000001100        0x0 /opt/mipsel-linux-uclibc/usr/lib/libc.a(sysconf.os)
 .mdebug.abi32  0x0000000000001100        0x0 /opt/mipsel-linux-uclibc/usr/lib/libc.a(usleep.os)
 .mdebug.abi32  0x0000000000001100        0x0 /opt/mipsel-linux-uclibc/usr/lib/libc.a(__uClibc_main.os)
 .mdebug.abi32  0x0000000000001100        0x0 /opt/mipsel-linux-uclibc/usr/lib/libc.a(__longjmp.os)
 .mdebug.abi32  0x0000000000001100        0x0 /opt/mipsel-linux-uclibc/usr/lib/libc.a(setjmp_aux.os)
 .mdebug.abi32  0x0000000000001100        0x0 /opt/mipsel-linux-uclibc/usr/lib/libc.a(sigaction.os)
 .mdebug.abi32  0x0000000000001100        0x0 /opt/mipsel-linux-uclibc/usr/lib/libc.a(clock_getres.os)
 .mdebug.abi32  0x0000000000001100        0x0 /opt/mipsel-linux-uclibc/usr/lib/libc.a(execve.os)
 .mdebug.abi32  0x0000000000001100        0x0 /opt/mipsel-linux-uclibc/usr/lib/libc.a(_exit.os)
 .mdebug.abi32  0x0000000000001100        0x0 /opt/mipsel-linux-uclibc/usr/lib/libc.a(fork.os)
 .mdebug.abi32  0x0000000000001100        0x0 /opt/mipsel-linux-uclibc/usr/lib/libc.a(fstat.os)
 .mdebug.abi32  0x0000000000001100        0x0 /opt/mipsel-linux-uclibc/usr/lib/libc.a(getdtablesize.os)
 .mdebug.abi32  0x0000000000001100        0x0 /opt/mipsel-linux-uclibc/usr/lib/libc.a(getegid.os)
 .mdebug.abi32  0x0000000000001100        0x0 /opt/mipsel-linux-uclibc/usr/lib/libc.a(getgid.os)
 .mdebug.abi32  0x0000000000001100        0x0 /opt/mipsel-linux-uclibc/usr/lib/libc.a(getrlimit.os)
 .mdebug.abi32  0x0000000000001100        0x0 /opt/mipsel-linux-uclibc/usr/lib/libc.a(getuid.os)
 .mdebug.abi32  0x0000000000001100        0x0 /opt/mipsel-linux-uclibc/usr/lib/libc.a(llseek.os)
 .mdebug.abi32  0x0000000000001100        0x0 /opt/mipsel-linux-uclibc/usr/lib/libc.a(mremap.os)
 .mdebug.abi32  0x0000000000001100        0x0 /opt/mipsel-linux-uclibc/usr/lib/libc.a(nanosleep.os)
 .mdebug.abi32  0x0000000000001100        0x0 /opt/mipsel-linux-uclibc/usr/lib/libc.a(sbrk.os)
 .mdebug.abi32  0x0000000000001100        0x0 /opt/mipsel-linux-uclibc/usr/lib/libc.a(__syscall_fcntl64.os)
 .mdebug.abi32  0x0000000000001100        0x0 /opt/mipsel-linux-uclibc/usr/lib/libc.a(__syscall_rt_sigaction.os)
 .mdebug.abi32  0x0000000000001100        0x0 /opt/mipsel-linux-uclibc/usr/lib/libc.a(wait4.os)
 .mdebug.abi32  0x0000000000001100        0x0 /opt/mipsel-linux-uclibc/usr/lib/libc.a(xstatconv.os)
 .mdebug.abi32  0x0000000000001100        0x0 /opt/mipsel-linux-uclibc/usr/lib/libc.a(readdir.os)
 .mdebug.abi32  0x0000000000001100        0x0 /opt/mipsel-linux-uclibc/usr/lib/libc.a(errno.os)
 .mdebug.abi32  0x0000000000001100        0x0 /opt/mipsel-linux-uclibc/usr/lib/libc.a(_READ.os)
 .mdebug.abi32  0x0000000000001100        0x0 /opt/mipsel-linux-uclibc/usr/lib/libc.a(_WRITE.os)
 .mdebug.abi32  0x0000000000001100        0x0 /opt/mipsel-linux-uclibc/usr/lib/libc.a(_fwrite.os)
 .mdebug.abi32  0x0000000000001100        0x0 /opt/mipsel-linux-uclibc/usr/lib/libc.a(_trans2r.os)
 .mdebug.abi32  0x0000000000001100        0x0 /opt/mipsel-linux-uclibc/usr/lib/libc.a(_trans2w.os)
 .mdebug.abi32  0x0000000000001100        0x0 /opt/mipsel-linux-uclibc/usr/lib/libc.a(_load_inttype.os)
 .mdebug.abi32  0x0000000000001100        0x0 /opt/mipsel-linux-uclibc/usr/lib/libc.a(_store_inttype.os)
 .mdebug.abi32  0x0000000000001100        0x0 /opt/mipsel-linux-uclibc/usr/lib/libc.a(_uintmaxtostr.os)
 .mdebug.abi32  0x0000000000001100        0x0 /opt/mipsel-linux-uclibc/usr/lib/libc.a(_fpmaxtostr.os)
 .mdebug.abi32  0x0000000000001100        0x0 /opt/mipsel-linux-uclibc/usr/lib/libc.a(fgetc_unlocked.os)
 .mdebug.abi32  0x0000000000001100        0x0 /opt/mipsel-linux-uclibc/usr/lib/libc.a(memchr.os)
 .mdebug.abi32  0x0000000000001100        0x0 /opt/mipsel-linux-uclibc/usr/lib/libc.a(mempcpy.os)
 .mdebug.abi32  0x0000000000001100        0x0 /opt/mipsel-linux-uclibc/usr/lib/libc.a(memrchr.os)
 .mdebug.abi32  0x0000000000001100        0x0 /opt/mipsel-linux-uclibc/usr/lib/libc.a(_string_syserrmsgs.os)
 .mdebug.abi32  0x0000000000001100        0x0 /opt/mipsel-linux-uclibc/usr/lib/libc.a(raise.os)
 .mdebug.abi32  0x0000000000001100        0x0 /opt/mipsel-linux-uclibc/usr/lib/libc.a(sigjmp.os)
 .mdebug.abi32  0x0000000000001100        0x0 /opt/mipsel-linux-uclibc/usr/lib/libc.a(signal.os)
 .mdebug.abi32  0x0000000000001100        0x0 /opt/mipsel-linux-uclibc/usr/lib/libc.a(sigsetops.os)
 .mdebug.abi32  0x0000000000001100        0x0 /opt/mipsel-linux-uclibc/usr/lib/libc.a(dl-support.os)
 .mdebug.abi32  0x0000000000001100        0x0 /opt/mipsel-linux-uclibc/usr/lib/libc.a(brk.os)
 .mdebug.abi32  0x0000000000001100        0x0 /opt/mipsel-linux-uclibc/usr/lib/libc.a(getdents.os)
 .mdebug.abi32  0x0000000000001100        0x0 /opt/mipsel-linux-uclibc/usr/lib/libc.a(getpid.os)
 .mdebug.abi32  0x0000000000001100        0x0 /opt/mipsel-linux-uclibc/usr/lib/libc.a(kill.os)
 .mdebug.abi32  0x0000000000001100        0x0 /opt/mipsel-linux-uclibc/usr/lib/libc.a(_rfill.os)
 .mdebug.abi32  0x0000000000001100        0x0 /opt/mipsel-linux-uclibc/usr/lib/libc.a(getdents64.os)
 .mdebug.abi32  0x0000000000001100        0x0 /opt/mipsel-linux-uclibc/usr/bin/../lib/gcc/mipsel-linux-uclibc/4.3.3/libgcc.a(_ne_df.o)
 .mdebug.abi32  0x0000000000001100        0x0 /opt/mipsel-linux-uclibc/usr/bin/../lib/gcc/mipsel-linux-uclibc/4.3.3/crtend.o
 .mdebug.abi32  0x0000000000001100        0x0 /opt/mipsel-linux-uclibc/usr/lib/crtn.o

.mdebug.abiN32
 *(.mdebug.abiN32)

.mdebug.abi64
 *(.mdebug.abi64)

.mdebug.abiO64
 *(.mdebug.abiO64)

.mdebug.eabi32
 *(.mdebug.eabi32)

.mdebug.eabi64
 *(.mdebug.eabi64)

.gcc_compiled_long32
 *(.gcc_compiled_long32)

.gcc_compiled_long64
 *(.gcc_compiled_long64)

/DISCARD/
 *(.note.GNU-stack)
 *(.gnu_debuglink)
OUTPUT(PicoDrive elf32-tradlittlemips)

.pdr            0x0000000000000000    0x196a0
 .pdr           0x0000000000000000        0x0 /opt/mipsel-linux-uclibc/usr/lib/crt1.o
 .pdr           0x0000000000000000       0x40 /opt/mipsel-linux-uclibc/usr/lib/crti.o
 .pdr           0x0000000000000040        0x0 /opt/mipsel-linux-uclibc/usr/bin/../lib/gcc/mipsel-linux-uclibc/4.3.3/crtbeginT.o
 .pdr           0x0000000000000040       0x40 platform/gp2x/main.o
 .pdr           0x0000000000000080      0x260 platform/gp2x/menu.o
 .pdr           0x00000000000002e0      0x240 platform/gp2x/emu.o
 .pdr           0x0000000000000520      0x1c0 platform/gp2x/usbjoy.o
 .pdr           0x00000000000006e0       0xc0 blit.o
 .pdr           0x00000000000007a0      0x500 gp2x.o
 .pdr           0x0000000000000ca0       0x60 log_io.o
 .pdr           0x0000000000000d00      0x240 platform/common/emu.o
 .pdr           0x0000000000000f40      0x180 platform/common/menu.o
 .pdr           0x00000000000010c0        0x0 platform/common/fonts.o
 .pdr           0x00000000000010c0       0x20 platform/common/readpng.o
 .pdr           0x00000000000010e0       0xa0 platform/common/mp3_helix.o
 .pdr           0x0000000000001180       0x60 Pico/Area.o
 .pdr           0x00000000000011e0      0x140 Pico/Cart.o
 .pdr           0x0000000000001320      0x3a0 Pico/Memory.o
 .pdr           0x00000000000016c0      0x100 Pico/Misc.o
 .pdr           0x00000000000017c0      0x100 Pico/Pico.o
 .pdr           0x00000000000018c0       0xe0 Pico/Sek.o
 .pdr           0x00000000000019a0       0x60 Pico/VideoPort.o
 .pdr           0x0000000000001a00       0xa0 Pico/Draw2.o
 .pdr           0x0000000000001aa0      0x2a0 Pico/Draw.o
 .pdr           0x0000000000001d40       0x80 Pico/Patch.o
 .pdr           0x0000000000001dc0       0x80 Pico/cd/Pico.o
 .pdr           0x0000000000001e40      0x3e0 Pico/cd/Memory.o
 .pdr           0x0000000000002220       0xa0 Pico/cd/Sek.o
 .pdr           0x00000000000022c0      0x100 Pico/cd/LC89510.o
 .pdr           0x00000000000023c0      0x360 Pico/cd/cd_sys.o
 .pdr           0x0000000000002720       0x80 Pico/cd/cd_file.o
 .pdr           0x00000000000027a0       0xa0 Pico/cd/gfx_cd.o
 .pdr           0x0000000000002840       0x80 Pico/cd/Area.o
 .pdr           0x00000000000028c0       0x40 Pico/cd/Misc.o
 .pdr           0x0000000000002900       0x60 Pico/cd/pcm.o
 .pdr           0x0000000000002960       0x60 Pico/cd/buffering.o
 .pdr           0x00000000000029c0      0x1a0 Pico/sound/sound.o
 .pdr           0x0000000000002b60       0x60 Pico/sound/sn76496.o
 .pdr           0x0000000000002bc0      0x100 Pico/sound/ym2612.o
 .pdr           0x0000000000002cc0       0xa0 Pico/sound/mix.o
 .pdr           0x0000000000002d60      0x320 zlib/gzio.o
 .pdr           0x0000000000003080       0x20 zlib/inffast.o
 .pdr           0x00000000000030a0      0x180 zlib/inflate.o
 .pdr           0x0000000000003220       0x20 zlib/inftrees.o
 .pdr           0x0000000000003240      0x100 zlib/trees.o
 .pdr           0x0000000000003340      0x220 zlib/deflate.o
 .pdr           0x0000000000003560       0x60 zlib/crc32.o
 .pdr           0x00000000000035c0       0x40 zlib/adler32.o
 .pdr           0x0000000000003600       0xa0 zlib/zutil.o
 .pdr           0x00000000000036a0       0x60 zlib/compress.o
 .pdr           0x0000000000003700       0x20 zlib/uncompr.o
 .pdr           0x0000000000003720      0x100 unzip/unzip.o
 .pdr           0x0000000000003820       0x40 unzip/unzip_stream.o
 .pdr           0x0000000000003860     0xf640 cpu/musashi/m68kops.o
 .pdr           0x0000000000012ea0      0x420 cpu/musashi/m68kcpu.o
 .pdr           0x00000000000132c0       0xe0 cpu/fame/famec.o
 .pdr           0x00000000000133a0      0x1c0 cpu/cz80/cz80.o
 .pdr           0x0000000000013560       0x40 Pico/Debug.o
 .pdr           0x00000000000135a0     0x2720 cpu/musashi/m68kdasm.o
 .pdr           0x0000000000015cc0       0x20 /opt/mipsel-linux-uclibc/usr/lib/libm.a(s_floor.os)
 .pdr           0x0000000000015ce0       0x20 /opt/mipsel-linux-uclibc/usr/lib/libm.a(s_sin.os)
 .pdr           0x0000000000015d00       0x20 /opt/mipsel-linux-uclibc/usr/lib/libm.a(w_log.os)
 .pdr           0x0000000000015d20       0x20 /opt/mipsel-linux-uclibc/usr/lib/libm.a(w_pow.os)
 .pdr           0x0000000000015d40       0x20 /opt/mipsel-linux-uclibc/usr/lib/libm.a(e_log.os)
 .pdr           0x0000000000015d60       0x20 /opt/mipsel-linux-uclibc/usr/lib/libm.a(e_pow.os)
 .pdr           0x0000000000015d80       0x20 /opt/mipsel-linux-uclibc/usr/lib/libm.a(e_rem_pio2.os)
 .pdr           0x0000000000015da0       0x20 /opt/mipsel-linux-uclibc/usr/lib/libm.a(e_sqrt.os)
 .pdr           0x0000000000015dc0       0x20 /opt/mipsel-linux-uclibc/usr/lib/libm.a(k_cos.os)
 .pdr           0x0000000000015de0       0x20 /opt/mipsel-linux-uclibc/usr/lib/libm.a(k_rem_pio2.os)
 .pdr           0x0000000000015e00       0x20 /opt/mipsel-linux-uclibc/usr/lib/libm.a(k_sin.os)
 .pdr           0x0000000000015e20       0x20 /opt/mipsel-linux-uclibc/usr/lib/libm.a(s_fabs.os)
 .pdr           0x0000000000015e40       0x20 /opt/mipsel-linux-uclibc/usr/lib/libm.a(s_scalbn.os)
 .pdr           0x0000000000015e60       0x20 /opt/mipsel-linux-uclibc/usr/lib/libm.a(s_copysign.os)
 .pdr           0x0000000000015e80      0x360 /opt/mipsel-linux-uclibc/usr/lib/libpng.a(libpng12_la-png.o)
 .pdr           0x00000000000161e0      0x640 /opt/mipsel-linux-uclibc/usr/lib/libpng.a(libpng12_la-pngget.o)
 .pdr           0x0000000000016820      0x200 /opt/mipsel-linux-uclibc/usr/lib/libpng.a(libpng12_la-pngread.o)
 .pdr           0x0000000000016a20       0x60 /opt/mipsel-linux-uclibc/usr/lib/libpng.a(libpng12_la-pngrio.o)
 .pdr           0x0000000000016a80      0x440 /opt/mipsel-linux-uclibc/usr/lib/libpng.a(libpng12_la-pngrtran.o)
 .pdr           0x0000000000016ec0      0x1a0 /opt/mipsel-linux-uclibc/usr/lib/libpng.a(libpng12_la-pngmem.o)
 .pdr           0x0000000000017060       0xe0 /opt/mipsel-linux-uclibc/usr/lib/libpng.a(libpng12_la-pngerror.o)
 .pdr           0x0000000000017140      0x460 /opt/mipsel-linux-uclibc/usr/lib/libpng.a(libpng12_la-pngrutil.o)
 .pdr           0x00000000000175a0      0x240 /opt/mipsel-linux-uclibc/usr/lib/libpng.a(libpng12_la-pngtrans.o)
 .pdr           0x00000000000177e0      0x420 /opt/mipsel-linux-uclibc/usr/lib/libpng.a(libpng12_la-pngset.o)
 .pdr           0x0000000000017c00       0x20 /opt/mipsel-linux-uclibc/usr/bin/../lib/gcc/mipsel-linux-uclibc/4.3.3/libgcc.a(_fixunssfsi.o)
 .pdr           0x0000000000017c20       0x20 /opt/mipsel-linux-uclibc/usr/bin/../lib/gcc/mipsel-linux-uclibc/4.3.3/libgcc.a(_fixunsdfsi.o)
 .pdr           0x0000000000017c40       0x60 /opt/mipsel-linux-uclibc/usr/bin/../lib/gcc/mipsel-linux-uclibc/4.3.3/libgcc.a(_addsub_sf.o)
 .pdr           0x0000000000017ca0       0x20 /opt/mipsel-linux-uclibc/usr/bin/../lib/gcc/mipsel-linux-uclibc/4.3.3/libgcc.a(_mul_sf.o)
 .pdr           0x0000000000017cc0       0x20 /opt/mipsel-linux-uclibc/usr/bin/../lib/gcc/mipsel-linux-uclibc/4.3.3/libgcc.a(_div_sf.o)
 .pdr           0x0000000000017ce0       0x20 /opt/mipsel-linux-uclibc/usr/bin/../lib/gcc/mipsel-linux-uclibc/4.3.3/libgcc.a(_ne_sf.o)
 .pdr           0x0000000000017d00       0x20 /opt/mipsel-linux-uclibc/usr/bin/../lib/gcc/mipsel-linux-uclibc/4.3.3/libgcc.a(_ge_sf.o)
 .pdr           0x0000000000017d20       0x20 /opt/mipsel-linux-uclibc/usr/bin/../lib/gcc/mipsel-linux-uclibc/4.3.3/libgcc.a(_si_to_sf.o)
 .pdr           0x0000000000017d40       0x20 /opt/mipsel-linux-uclibc/usr/bin/../lib/gcc/mipsel-linux-uclibc/4.3.3/libgcc.a(_sf_to_si.o)
 .pdr           0x0000000000017d60       0x20 /opt/mipsel-linux-uclibc/usr/bin/../lib/gcc/mipsel-linux-uclibc/4.3.3/libgcc.a(_sf_to_df.o)
 .pdr           0x0000000000017d80        0x0 /opt/mipsel-linux-uclibc/usr/bin/../lib/gcc/mipsel-linux-uclibc/4.3.3/libgcc.a(_thenan_sf.o)
 .pdr           0x0000000000017d80       0x20 /opt/mipsel-linux-uclibc/usr/bin/../lib/gcc/mipsel-linux-uclibc/4.3.3/libgcc.a(_usi_to_sf.o)
 .pdr           0x0000000000017da0       0x60 /opt/mipsel-linux-uclibc/usr/bin/../lib/gcc/mipsel-linux-uclibc/4.3.3/libgcc.a(_addsub_df.o)
 .pdr           0x0000000000017e00       0x20 /opt/mipsel-linux-uclibc/usr/bin/../lib/gcc/mipsel-linux-uclibc/4.3.3/libgcc.a(_mul_df.o)
 .pdr           0x0000000000017e20       0x20 /opt/mipsel-linux-uclibc/usr/bin/../lib/gcc/mipsel-linux-uclibc/4.3.3/libgcc.a(_div_df.o)
 .pdr           0x0000000000017e40       0x20 /opt/mipsel-linux-uclibc/usr/bin/../lib/gcc/mipsel-linux-uclibc/4.3.3/libgcc.a(_eq_df.o)
 .pdr           0x0000000000017e60       0x20 /opt/mipsel-linux-uclibc/usr/bin/../lib/gcc/mipsel-linux-uclibc/4.3.3/libgcc.a(_gt_df.o)
 .pdr           0x0000000000017e80       0x20 /opt/mipsel-linux-uclibc/usr/bin/../lib/gcc/mipsel-linux-uclibc/4.3.3/libgcc.a(_ge_df.o)
 .pdr           0x0000000000017ea0       0x20 /opt/mipsel-linux-uclibc/usr/bin/../lib/gcc/mipsel-linux-uclibc/4.3.3/libgcc.a(_lt_df.o)
 .pdr           0x0000000000017ec0       0x20 /opt/mipsel-linux-uclibc/usr/bin/../lib/gcc/mipsel-linux-uclibc/4.3.3/libgcc.a(_le_df.o)
 .pdr           0x0000000000017ee0       0x20 /opt/mipsel-linux-uclibc/usr/bin/../lib/gcc/mipsel-linux-uclibc/4.3.3/libgcc.a(_si_to_df.o)
 .pdr           0x0000000000017f00       0x20 /opt/mipsel-linux-uclibc/usr/bin/../lib/gcc/mipsel-linux-uclibc/4.3.3/libgcc.a(_df_to_si.o)
 .pdr           0x0000000000017f20       0x20 /opt/mipsel-linux-uclibc/usr/bin/../lib/gcc/mipsel-linux-uclibc/4.3.3/libgcc.a(_make_df.o)
 .pdr           0x0000000000017f40       0x20 /opt/mipsel-linux-uclibc/usr/bin/../lib/gcc/mipsel-linux-uclibc/4.3.3/libgcc.a(_df_to_sf.o)
 .pdr           0x0000000000017f60        0x0 /opt/mipsel-linux-uclibc/usr/bin/../lib/gcc/mipsel-linux-uclibc/4.3.3/libgcc.a(_thenan_df.o)
 .pdr           0x0000000000017f60       0x20 /opt/mipsel-linux-uclibc/usr/bin/../lib/gcc/mipsel-linux-uclibc/4.3.3/libgcc.a(_usi_to_df.o)
 .pdr           0x0000000000017f80       0x20 /opt/mipsel-linux-uclibc/usr/bin/../lib/gcc/mipsel-linux-uclibc/4.3.3/libgcc.a(_lshrdi3.o)
 .pdr           0x0000000000017fa0       0x20 /opt/mipsel-linux-uclibc/usr/bin/../lib/gcc/mipsel-linux-uclibc/4.3.3/libgcc.a(_ashldi3.o)
 .pdr           0x0000000000017fc0       0x20 /opt/mipsel-linux-uclibc/usr/bin/../lib/gcc/mipsel-linux-uclibc/4.3.3/libgcc.a(_ucmpdi2.o)
 .pdr           0x0000000000017fe0       0x20 /opt/mipsel-linux-uclibc/usr/bin/../lib/gcc/mipsel-linux-uclibc/4.3.3/libgcc.a(_clzsi2.o)
 .pdr           0x0000000000018000       0x20 /opt/mipsel-linux-uclibc/usr/bin/../lib/gcc/mipsel-linux-uclibc/4.3.3/libgcc.a(_pack_sf.o)
 .pdr           0x0000000000018020       0x20 /opt/mipsel-linux-uclibc/usr/bin/../lib/gcc/mipsel-linux-uclibc/4.3.3/libgcc.a(_unpack_sf.o)
 .pdr           0x0000000000018040       0x20 /opt/mipsel-linux-uclibc/usr/bin/../lib/gcc/mipsel-linux-uclibc/4.3.3/libgcc.a(_fpcmp_parts_sf.o)
 .pdr           0x0000000000018060       0x20 /opt/mipsel-linux-uclibc/usr/bin/../lib/gcc/mipsel-linux-uclibc/4.3.3/libgcc.a(_make_sf.o)
 .pdr           0x0000000000018080       0x20 /opt/mipsel-linux-uclibc/usr/bin/../lib/gcc/mipsel-linux-uclibc/4.3.3/libgcc.a(_pack_df.o)
 .pdr           0x00000000000180a0       0x20 /opt/mipsel-linux-uclibc/usr/bin/../lib/gcc/mipsel-linux-uclibc/4.3.3/libgcc.a(_unpack_df.o)
 .pdr           0x00000000000180c0       0x20 /opt/mipsel-linux-uclibc/usr/bin/../lib/gcc/mipsel-linux-uclibc/4.3.3/libgcc.a(_fpcmp_parts_df.o)
 .pdr           0x00000000000180e0        0x0 /opt/mipsel-linux-uclibc/usr/bin/../lib/gcc/mipsel-linux-uclibc/4.3.3/libgcc.a(_clz.o)
 .pdr           0x00000000000180e0       0x20 /opt/mipsel-linux-uclibc/usr/lib/libc.a(mmap.os)
 .pdr           0x0000000000018100       0x20 /opt/mipsel-linux-uclibc/usr/lib/libc.a(bsd-_setjmp.os)
 .pdr           0x0000000000018120       0x20 /opt/mipsel-linux-uclibc/usr/lib/libc.a(setjmp.os)
 .pdr           0x0000000000018140       0x20 /opt/mipsel-linux-uclibc/usr/lib/libc.a(close.os)
 .pdr           0x0000000000018160       0x20 /opt/mipsel-linux-uclibc/usr/lib/libc.a(dup.os)
 .pdr           0x0000000000018180       0x20 /opt/mipsel-linux-uclibc/usr/lib/libc.a(getcwd.os)
 .pdr           0x00000000000181a0       0x20 /opt/mipsel-linux-uclibc/usr/lib/libc.a(geteuid.os)
 .pdr           0x00000000000181c0       0x20 /opt/mipsel-linux-uclibc/usr/lib/libc.a(getpagesize.os)
 .pdr           0x00000000000181e0       0x20 /opt/mipsel-linux-uclibc/usr/lib/libc.a(gettimeofday.os)
 .pdr           0x0000000000018200       0x20 /opt/mipsel-linux-uclibc/usr/lib/libc.a(ioctl.os)
 .pdr           0x0000000000018220       0x20 /opt/mipsel-linux-uclibc/usr/lib/libc.a(longjmp.os)
 .pdr           0x0000000000018240       0x20 /opt/mipsel-linux-uclibc/usr/lib/libc.a(mkdir.os)
 .pdr           0x0000000000018260       0x20 /opt/mipsel-linux-uclibc/usr/lib/libc.a(munmap.os)
 .pdr           0x0000000000018280       0x40 /opt/mipsel-linux-uclibc/usr/lib/libc.a(open.os)
 .pdr           0x00000000000182c0       0x20 /opt/mipsel-linux-uclibc/usr/lib/libc.a(read.os)
 .pdr           0x00000000000182e0       0x20 /opt/mipsel-linux-uclibc/usr/lib/libc.a(sigprocmask.os)
 .pdr           0x0000000000018300       0x20 /opt/mipsel-linux-uclibc/usr/lib/libc.a(__syscall_fcntl.os)
 .pdr           0x0000000000018320       0x20 /opt/mipsel-linux-uclibc/usr/lib/libc.a(write.os)
 .pdr           0x0000000000018340        0x0 /opt/mipsel-linux-uclibc/usr/lib/libc.a(__C_ctype_b.os)
 .pdr           0x0000000000018340        0x0 /opt/mipsel-linux-uclibc/usr/lib/libc.a(__C_ctype_tolower.os)
 .pdr           0x0000000000018340       0x20 /opt/mipsel-linux-uclibc/usr/lib/libc.a(alphasort.os)
 .pdr           0x0000000000018360       0x20 /opt/mipsel-linux-uclibc/usr/lib/libc.a(closedir.os)
 .pdr           0x0000000000018380       0x20 /opt/mipsel-linux-uclibc/usr/lib/libc.a(opendir.os)
 .pdr           0x00000000000183a0       0x20 /opt/mipsel-linux-uclibc/usr/lib/libc.a(scandir.os)
 .pdr           0x00000000000183c0       0x20 /opt/mipsel-linux-uclibc/usr/lib/libc.a(__errno_location.os)
 .pdr           0x00000000000183e0       0x20 /opt/mipsel-linux-uclibc/usr/lib/libc.a(fclose.os)
 .pdr           0x0000000000018400       0x20 /opt/mipsel-linux-uclibc/usr/lib/libc.a(fdopen.os)
 .pdr           0x0000000000018420       0x20 /opt/mipsel-linux-uclibc/usr/lib/libc.a(fopen.os)
 .pdr           0x0000000000018440       0x20 /opt/mipsel-linux-uclibc/usr/lib/libc.a(fseeko.os)
 .pdr           0x0000000000018460       0x20 /opt/mipsel-linux-uclibc/usr/lib/libc.a(ftello.os)
 .pdr           0x0000000000018480       0x20 /opt/mipsel-linux-uclibc/usr/lib/libc.a(perror.os)
 .pdr           0x00000000000184a0       0x20 /opt/mipsel-linux-uclibc/usr/lib/libc.a(puts.os)
 .pdr           0x00000000000184c0       0x20 /opt/mipsel-linux-uclibc/usr/lib/libc.a(setvbuf.os)
 .pdr           0x00000000000184e0       0x20 /opt/mipsel-linux-uclibc/usr/lib/libc.a(printf.os)
 .pdr           0x0000000000018500       0x20 /opt/mipsel-linux-uclibc/usr/lib/libc.a(vsprintf.os)
 .pdr           0x0000000000018520       0x20 /opt/mipsel-linux-uclibc/usr/lib/libc.a(fprintf.os)
 .pdr           0x0000000000018540       0x20 /opt/mipsel-linux-uclibc/usr/lib/libc.a(snprintf.os)
 .pdr           0x0000000000018560       0x20 /opt/mipsel-linux-uclibc/usr/lib/libc.a(sprintf.os)
 .pdr           0x0000000000018580       0x20 /opt/mipsel-linux-uclibc/usr/lib/libc.a(vsnprintf.os)
 .pdr           0x00000000000185a0       0x20 /opt/mipsel-linux-uclibc/usr/lib/libc.a(fseeko64.os)
 .pdr           0x00000000000185c0       0x20 /opt/mipsel-linux-uclibc/usr/lib/libc.a(ftello64.os)
 .pdr           0x00000000000185e0       0x20 /opt/mipsel-linux-uclibc/usr/lib/libc.a(_adjust_pos.os)
 .pdr           0x0000000000018600       0x20 /opt/mipsel-linux-uclibc/usr/lib/libc.a(_fopen.os)
 .pdr           0x0000000000018620       0x60 /opt/mipsel-linux-uclibc/usr/lib/libc.a(_stdio.os)
 .pdr           0x0000000000018680       0x20 /opt/mipsel-linux-uclibc/usr/lib/libc.a(_wcommit.os)
 .pdr           0x00000000000186a0       0x80 /opt/mipsel-linux-uclibc/usr/lib/libc.a(_cs_funcs.os)
 .pdr           0x0000000000018720       0x20 /opt/mipsel-linux-uclibc/usr/lib/libc.a(vfprintf.os)
 .pdr           0x0000000000018740       0x40 /opt/mipsel-linux-uclibc/usr/lib/libc.a(_vfprintf_internal.os)
 .pdr           0x0000000000018780       0x20 /opt/mipsel-linux-uclibc/usr/lib/libc.a(_ppfs_init.os)
 .pdr           0x00000000000187a0       0x20 /opt/mipsel-linux-uclibc/usr/lib/libc.a(_ppfs_prepargs.os)
 .pdr           0x00000000000187c0       0x20 /opt/mipsel-linux-uclibc/usr/lib/libc.a(_ppfs_setargs.os)
 .pdr           0x00000000000187e0       0x20 /opt/mipsel-linux-uclibc/usr/lib/libc.a(_ppfs_parsespec.os)
 .pdr           0x0000000000018800       0x20 /opt/mipsel-linux-uclibc/usr/lib/libc.a(clearerr.os)
 .pdr           0x0000000000018820       0x20 /opt/mipsel-linux-uclibc/usr/lib/libc.a(feof.os)
 .pdr           0x0000000000018840       0x20 /opt/mipsel-linux-uclibc/usr/lib/libc.a(ferror.os)
 .pdr           0x0000000000018860       0x20 /opt/mipsel-linux-uclibc/usr/lib/libc.a(fflush.os)
 .pdr           0x0000000000018880       0x20 /opt/mipsel-linux-uclibc/usr/lib/libc.a(fgets.os)
 .pdr           0x00000000000188a0       0x20 /opt/mipsel-linux-uclibc/usr/lib/libc.a(fputc.os)
 .pdr           0x00000000000188c0       0x20 /opt/mipsel-linux-uclibc/usr/lib/libc.a(fread.os)
 .pdr           0x00000000000188e0       0x20 /opt/mipsel-linux-uclibc/usr/lib/libc.a(fwrite.os)
 .pdr           0x0000000000018900       0x20 /opt/mipsel-linux-uclibc/usr/lib/libc.a(putchar.os)
 .pdr           0x0000000000018920       0x40 /opt/mipsel-linux-uclibc/usr/lib/libc.a(fflush_unlocked.os)
 .pdr           0x0000000000018960       0x20 /opt/mipsel-linux-uclibc/usr/lib/libc.a(fgets_unlocked.os)
 .pdr           0x0000000000018980       0x20 /opt/mipsel-linux-uclibc/usr/lib/libc.a(fputc_unlocked.os)
 .pdr           0x00000000000189a0       0x20 /opt/mipsel-linux-uclibc/usr/lib/libc.a(fputs_unlocked.os)
 .pdr           0x00000000000189c0       0x20 /opt/mipsel-linux-uclibc/usr/lib/libc.a(fread_unlocked.os)
 .pdr           0x00000000000189e0       0x20 /opt/mipsel-linux-uclibc/usr/lib/libc.a(fwrite_unlocked.os)
 .pdr           0x0000000000018a00       0x20 /opt/mipsel-linux-uclibc/usr/lib/libc.a(memcpy.os)
 .pdr           0x0000000000018a20       0x20 /opt/mipsel-linux-uclibc/usr/lib/libc.a(memset.os)
 .pdr           0x0000000000018a40       0x20 /opt/mipsel-linux-uclibc/usr/lib/libc.a(memcmp.os)
 .pdr           0x0000000000018a60       0x20 /opt/mipsel-linux-uclibc/usr/lib/libc.a(memmove.os)
 .pdr           0x0000000000018a80       0x20 /opt/mipsel-linux-uclibc/usr/lib/libc.a(strcat.os)
 .pdr           0x0000000000018aa0       0x20 /opt/mipsel-linux-uclibc/usr/lib/libc.a(strchr.os)
 .pdr           0x0000000000018ac0       0x20 /opt/mipsel-linux-uclibc/usr/lib/libc.a(strcmp.os)
 .pdr           0x0000000000018ae0       0x20 /opt/mipsel-linux-uclibc/usr/lib/libc.a(strcpy.os)
 .pdr           0x0000000000018b00       0x20 /opt/mipsel-linux-uclibc/usr/lib/libc.a(strlen.os)
 .pdr           0x0000000000018b20       0x20 /opt/mipsel-linux-uclibc/usr/lib/libc.a(strncmp.os)
 .pdr           0x0000000000018b40       0x20 /opt/mipsel-linux-uclibc/usr/lib/libc.a(strncpy.os)
 .pdr           0x0000000000018b60       0x20 /opt/mipsel-linux-uclibc/usr/lib/libc.a(strnlen.os)
 .pdr           0x0000000000018b80       0x20 /opt/mipsel-linux-uclibc/usr/lib/libc.a(strrchr.os)
 .pdr           0x0000000000018ba0       0x20 /opt/mipsel-linux-uclibc/usr/lib/libc.a(strstr.os)
 .pdr           0x0000000000018bc0       0x20 /opt/mipsel-linux-uclibc/usr/lib/libc.a(__glibc_strerror_r.os)
 .pdr           0x0000000000018be0       0x20 /opt/mipsel-linux-uclibc/usr/lib/libc.a(strcasecmp.os)
 .pdr           0x0000000000018c00       0x20 /opt/mipsel-linux-uclibc/usr/lib/libc.a(strerror.os)
 .pdr           0x0000000000018c20       0x20 /opt/mipsel-linux-uclibc/usr/lib/libc.a(strncasecmp.os)
 .pdr           0x0000000000018c40       0x20 /opt/mipsel-linux-uclibc/usr/lib/libc.a(__xpg_strerror_r.os)
 .pdr           0x0000000000018c60       0x20 /opt/mipsel-linux-uclibc/usr/lib/libc.a(isatty.os)
 .pdr           0x0000000000018c80       0x20 /opt/mipsel-linux-uclibc/usr/lib/libc.a(tcgetattr.os)
 .pdr           0x0000000000018ca0       0x20 /opt/mipsel-linux-uclibc/usr/lib/libc.a(tcsetattr.os)
 .pdr           0x0000000000018cc0       0x40 /opt/mipsel-linux-uclibc/usr/lib/libc.a(malloc.os)
 .pdr           0x0000000000018d00       0x20 /opt/mipsel-linux-uclibc/usr/lib/libc.a(calloc.os)
 .pdr           0x0000000000018d20       0x20 /opt/mipsel-linux-uclibc/usr/lib/libc.a(realloc.os)
 .pdr           0x0000000000018d40       0x80 /opt/mipsel-linux-uclibc/usr/lib/libc.a(free.os)
 .pdr           0x0000000000018dc0       0x20 /opt/mipsel-linux-uclibc/usr/lib/libc.a(abort.os)
 .pdr           0x0000000000018de0       0x20 /opt/mipsel-linux-uclibc/usr/lib/libc.a(system.os)
 .pdr           0x0000000000018e00       0x20 /opt/mipsel-linux-uclibc/usr/lib/libc.a(strtol.os)
 .pdr           0x0000000000018e20       0x20 /opt/mipsel-linux-uclibc/usr/lib/libc.a(strtoul.os)
 .pdr           0x0000000000018e40       0x20 /opt/mipsel-linux-uclibc/usr/lib/libc.a(_stdlib_strto_l.os)
 .pdr           0x0000000000018e60       0x20 /opt/mipsel-linux-uclibc/usr/lib/libc.a(qsort.os)
 .pdr           0x0000000000018e80       0x20 /opt/mipsel-linux-uclibc/usr/lib/libc.a(strtod.os)
 .pdr           0x0000000000018ea0       0x20 /opt/mipsel-linux-uclibc/usr/lib/libc.a(__strtofpmax.os)
 .pdr           0x0000000000018ec0       0x20 /opt/mipsel-linux-uclibc/usr/lib/libc.a(__fp_range_check.os)
 .pdr           0x0000000000018ee0       0x20 /opt/mipsel-linux-uclibc/usr/lib/libc.a(exit.os)
 .pdr           0x0000000000018f00       0x20 /opt/mipsel-linux-uclibc/usr/lib/libc.a(execl.os)
 .pdr           0x0000000000018f20       0x20 /opt/mipsel-linux-uclibc/usr/lib/libc.a(sysconf.os)
 .pdr           0x0000000000018f40       0x20 /opt/mipsel-linux-uclibc/usr/lib/libc.a(usleep.os)
 .pdr           0x0000000000018f60       0xc0 /opt/mipsel-linux-uclibc/usr/lib/libc.a(__uClibc_main.os)
 .pdr           0x0000000000019020       0x20 /opt/mipsel-linux-uclibc/usr/lib/libc.a(__longjmp.os)
 .pdr           0x0000000000019040       0x20 /opt/mipsel-linux-uclibc/usr/lib/libc.a(setjmp_aux.os)
 .pdr           0x0000000000019060       0x20 /opt/mipsel-linux-uclibc/usr/lib/libc.a(sigaction.os)
 .pdr           0x0000000000019080       0x20 /opt/mipsel-linux-uclibc/usr/lib/libc.a(clock_getres.os)
 .pdr           0x00000000000190a0       0x20 /opt/mipsel-linux-uclibc/usr/lib/libc.a(execve.os)
 .pdr           0x00000000000190c0       0x20 /opt/mipsel-linux-uclibc/usr/lib/libc.a(_exit.os)
 .pdr           0x00000000000190e0       0x20 /opt/mipsel-linux-uclibc/usr/lib/libc.a(fork.os)
 .pdr           0x0000000000019100       0x20 /opt/mipsel-linux-uclibc/usr/lib/libc.a(fstat.os)
 .pdr           0x0000000000019120       0x20 /opt/mipsel-linux-uclibc/usr/lib/libc.a(getdtablesize.os)
 .pdr           0x0000000000019140       0x20 /opt/mipsel-linux-uclibc/usr/lib/libc.a(getegid.os)
 .pdr           0x0000000000019160       0x20 /opt/mipsel-linux-uclibc/usr/lib/libc.a(getgid.os)
 .pdr           0x0000000000019180       0x20 /opt/mipsel-linux-uclibc/usr/lib/libc.a(getrlimit.os)
 .pdr           0x00000000000191a0       0x20 /opt/mipsel-linux-uclibc/usr/lib/libc.a(getuid.os)
 .pdr           0x00000000000191c0       0x20 /opt/mipsel-linux-uclibc/usr/lib/libc.a(llseek.os)
 .pdr           0x00000000000191e0       0x20 /opt/mipsel-linux-uclibc/usr/lib/libc.a(mremap.os)
 .pdr           0x0000000000019200       0x20 /opt/mipsel-linux-uclibc/usr/lib/libc.a(nanosleep.os)
 .pdr           0x0000000000019220       0x20 /opt/mipsel-linux-uclibc/usr/lib/libc.a(sbrk.os)
 .pdr           0x0000000000019240       0x20 /opt/mipsel-linux-uclibc/usr/lib/libc.a(__syscall_fcntl64.os)
 .pdr           0x0000000000019260       0x20 /opt/mipsel-linux-uclibc/usr/lib/libc.a(__syscall_rt_sigaction.os)
 .pdr           0x0000000000019280       0x20 /opt/mipsel-linux-uclibc/usr/lib/libc.a(wait4.os)
 .pdr           0x00000000000192a0       0x40 /opt/mipsel-linux-uclibc/usr/lib/libc.a(xstatconv.os)
 .pdr           0x00000000000192e0       0x20 /opt/mipsel-linux-uclibc/usr/lib/libc.a(readdir.os)
 .pdr           0x0000000000019300        0x0 /opt/mipsel-linux-uclibc/usr/lib/libc.a(errno.os)
 .pdr           0x0000000000019300       0x20 /opt/mipsel-linux-uclibc/usr/lib/libc.a(_READ.os)
 .pdr           0x0000000000019320       0x20 /opt/mipsel-linux-uclibc/usr/lib/libc.a(_WRITE.os)
 .pdr           0x0000000000019340       0x20 /opt/mipsel-linux-uclibc/usr/lib/libc.a(_fwrite.os)
 .pdr           0x0000000000019360       0x20 /opt/mipsel-linux-uclibc/usr/lib/libc.a(_trans2r.os)
 .pdr           0x0000000000019380       0x20 /opt/mipsel-linux-uclibc/usr/lib/libc.a(_trans2w.os)
 .pdr           0x00000000000193a0       0x20 /opt/mipsel-linux-uclibc/usr/lib/libc.a(_load_inttype.os)
 .pdr           0x00000000000193c0       0x20 /opt/mipsel-linux-uclibc/usr/lib/libc.a(_store_inttype.os)
 .pdr           0x00000000000193e0       0x20 /opt/mipsel-linux-uclibc/usr/lib/libc.a(_uintmaxtostr.os)
 .pdr           0x0000000000019400       0x20 /opt/mipsel-linux-uclibc/usr/lib/libc.a(_fpmaxtostr.os)
 .pdr           0x0000000000019420       0x20 /opt/mipsel-linux-uclibc/usr/lib/libc.a(fgetc_unlocked.os)
 .pdr           0x0000000000019440       0x20 /opt/mipsel-linux-uclibc/usr/lib/libc.a(memchr.os)
 .pdr           0x0000000000019460       0x20 /opt/mipsel-linux-uclibc/usr/lib/libc.a(mempcpy.os)
 .pdr           0x0000000000019480       0x20 /opt/mipsel-linux-uclibc/usr/lib/libc.a(memrchr.os)
 .pdr           0x00000000000194a0        0x0 /opt/mipsel-linux-uclibc/usr/lib/libc.a(_string_syserrmsgs.os)
 .pdr           0x00000000000194a0       0x20 /opt/mipsel-linux-uclibc/usr/lib/libc.a(raise.os)
 .pdr           0x00000000000194c0       0x20 /opt/mipsel-linux-uclibc/usr/lib/libc.a(sigjmp.os)
 .pdr           0x00000000000194e0       0x20 /opt/mipsel-linux-uclibc/usr/lib/libc.a(signal.os)
 .pdr           0x0000000000019500       0x60 /opt/mipsel-linux-uclibc/usr/lib/libc.a(sigsetops.os)
 .pdr           0x0000000000019560       0x20 /opt/mipsel-linux-uclibc/usr/lib/libc.a(dl-support.os)
 .pdr           0x0000000000019580       0x20 /opt/mipsel-linux-uclibc/usr/lib/libc.a(brk.os)
 .pdr           0x00000000000195a0       0x20 /opt/mipsel-linux-uclibc/usr/lib/libc.a(getdents.os)
 .pdr           0x00000000000195c0       0x20 /opt/mipsel-linux-uclibc/usr/lib/libc.a(getpid.os)
 .pdr           0x00000000000195e0       0x20 /opt/mipsel-linux-uclibc/usr/lib/libc.a(kill.os)
 .pdr           0x0000000000019600       0x20 /opt/mipsel-linux-uclibc/usr/lib/libc.a(_rfill.os)
 .pdr           0x0000000000019620       0x20 /opt/mipsel-linux-uclibc/usr/lib/libc.a(getdents64.os)
 .pdr           0x0000000000019640       0x20 /opt/mipsel-linux-uclibc/usr/bin/../lib/gcc/mipsel-linux-uclibc/4.3.3/libgcc.a(_ne_df.o)
 .pdr           0x0000000000019660        0x0 /opt/mipsel-linux-uclibc/usr/bin/../lib/gcc/mipsel-linux-uclibc/4.3.3/crtend.o
 .pdr           0x0000000000019660       0x40 /opt/mipsel-linux-uclibc/usr/lib/crtn.o
